	.file	"main.cpp"
	.section	.text$_ZNSt11char_traitsIcE6lengthEPKc,"x"
	.linkonce discard
	.globl	__ZNSt11char_traitsIcE6lengthEPKc
	.def	__ZNSt11char_traitsIcE6lengthEPKc;	.scl	2;	.type	32;	.endef
__ZNSt11char_traitsIcE6lengthEPKc:
LFB196:
	.cfi_startproc
	pushl	%ebp
	.cfi_def_cfa_offset 8
	.cfi_offset 5, -8
	movl	%esp, %ebp
	.cfi_def_cfa_register 5
	pushl	%edi
	subl	$4, %esp
	movl	8(%ebp), %eax
	movl	$-1, -8(%ebp)
	movl	%eax, %edx
	movb	$0, %al
	movl	-8(%ebp), %ecx
	movl	%edx, %edi
	.cfi_offset 7, -12
	repne scasb
	movl	%ecx, %eax
	notl	%eax
	decl	%eax
	addl	$4, %esp
	popl	%edi
	.cfi_restore 7
	popl	%ebp
	.cfi_def_cfa 4, 4
	.cfi_restore 5
	ret
	.cfi_endproc
LFE196:
	.section	.text$_ZnwjPv,"x"
	.linkonce discard
	.globl	__ZnwjPv
	.def	__ZnwjPv;	.scl	2;	.type	32;	.endef
__ZnwjPv:
LFB243:
	.cfi_startproc
	pushl	%ebp
	.cfi_def_cfa_offset 8
	.cfi_offset 5, -8
	movl	%esp, %ebp
	.cfi_def_cfa_register 5
	movl	12(%ebp), %eax
	popl	%ebp
	.cfi_def_cfa 4, 4
	.cfi_restore 5
	ret
	.cfi_endproc
LFE243:
	.section	.text$_ZdlPvS_,"x"
	.linkonce discard
	.globl	__ZdlPvS_
	.def	__ZdlPvS_;	.scl	2;	.type	32;	.endef
__ZdlPvS_:
LFB245:
	.cfi_startproc
	pushl	%ebp
	.cfi_def_cfa_offset 8
	.cfi_offset 5, -8
	movl	%esp, %ebp
	.cfi_def_cfa_register 5
	popl	%ebp
	.cfi_def_cfa 4, 4
	.cfi_restore 5
	ret
	.cfi_endproc
LFE245:
	.section	.text$_ZStorSt13_Ios_OpenmodeS_,"x"
	.linkonce discard
	.globl	__ZStorSt13_Ios_OpenmodeS_
	.def	__ZStorSt13_Ios_OpenmodeS_;	.scl	2;	.type	32;	.endef
__ZStorSt13_Ios_OpenmodeS_:
LFB571:
	.cfi_startproc
	pushl	%ebp
	.cfi_def_cfa_offset 8
	.cfi_offset 5, -8
	movl	%esp, %ebp
	.cfi_def_cfa_register 5
	movl	8(%ebp), %edx
	movl	12(%ebp), %eax
	orl	%edx, %eax
	popl	%ebp
	.cfi_def_cfa 4, 4
	.cfi_restore 5
	ret
	.cfi_endproc
LFE571:
.lcomm __ZStL8__ioinit,1,1
	.section	.text$_ZNSt18_Rb_tree_node_base10_S_minimumEPS_,"x"
	.linkonce discard
	.globl	__ZNSt18_Rb_tree_node_base10_S_minimumEPS_
	.def	__ZNSt18_Rb_tree_node_base10_S_minimumEPS_;	.scl	2;	.type	32;	.endef
__ZNSt18_Rb_tree_node_base10_S_minimumEPS_:
LFB1173:
	.cfi_startproc
	pushl	%ebp
	.cfi_def_cfa_offset 8
	.cfi_offset 5, -8
	movl	%esp, %ebp
	.cfi_def_cfa_register 5
	jmp	L6
L7:
	movl	8(%ebp), %eax
	movl	8(%eax), %eax
	movl	%eax, 8(%ebp)
L6:
	movl	8(%ebp), %eax
	movl	8(%eax), %eax
	testl	%eax, %eax
	setne	%al
	testb	%al, %al
	jne	L7
	movl	8(%ebp), %eax
	popl	%ebp
	.cfi_def_cfa 4, 4
	.cfi_restore 5
	ret
	.cfi_endproc
LFE1173:
	.section	.text$_ZNSt18_Rb_tree_node_base10_S_maximumEPS_,"x"
	.linkonce discard
	.globl	__ZNSt18_Rb_tree_node_base10_S_maximumEPS_
	.def	__ZNSt18_Rb_tree_node_base10_S_maximumEPS_;	.scl	2;	.type	32;	.endef
__ZNSt18_Rb_tree_node_base10_S_maximumEPS_:
LFB1175:
	.cfi_startproc
	pushl	%ebp
	.cfi_def_cfa_offset 8
	.cfi_offset 5, -8
	movl	%esp, %ebp
	.cfi_def_cfa_register 5
	jmp	L9
L10:
	movl	8(%ebp), %eax
	movl	12(%eax), %eax
	movl	%eax, 8(%ebp)
L9:
	movl	8(%ebp), %eax
	movl	12(%eax), %eax
	testl	%eax, %eax
	setne	%al
	testb	%al, %al
	jne	L10
	movl	8(%ebp), %eax
	popl	%ebp
	.cfi_def_cfa 4, 4
	.cfi_restore 5
	ret
	.cfi_endproc
LFE1175:
	.section	.text$_ZSt16__deque_buf_sizej,"x"
	.linkonce discard
	.globl	__ZSt16__deque_buf_sizej
	.def	__ZSt16__deque_buf_sizej;	.scl	2;	.type	32;	.endef
__ZSt16__deque_buf_sizej:
LFB1408:
	.cfi_startproc
	pushl	%ebp
	.cfi_def_cfa_offset 8
	.cfi_offset 5, -8
	movl	%esp, %ebp
	.cfi_def_cfa_register 5
	cmpl	$511, 8(%ebp)
	ja	L12
	movl	$512, %eax
	movl	$0, %edx
	divl	8(%ebp)
	jmp	L13
L12:
	movl	$1, %eax
L13:
	popl	%ebp
	.cfi_def_cfa 4, 4
	.cfi_restore 5
	ret
	.cfi_endproc
LFE1408:
	.text
	.align 2
	.globl	__ZN16ByteCodeMnemonicC2ESsj
	.def	__ZN16ByteCodeMnemonicC2ESsj;	.scl	2;	.type	32;	.endef
__ZN16ByteCodeMnemonicC2ESsj:
LFB1815:
	.cfi_startproc
	.cfi_personality 0,___gxx_personality_v0
	.cfi_lsda 0,LLSDA1815
	pushl	%ebp
	.cfi_def_cfa_offset 8
	.cfi_offset 5, -8
	movl	%esp, %ebp
	.cfi_def_cfa_register 5
	pushl	%ebx
	subl	$20, %esp
	movl	8(%ebp), %eax
	movl	12(%ebp), %edx
	movl	%edx, 4(%esp)
	movl	%eax, (%esp)
LEHB0:
	.cfi_offset 3, -12
	call	__ZNSsC1ERKSs
LEHE0:
	movl	8(%ebp), %eax
	addl	$4, %eax
	movl	%eax, (%esp)
LEHB1:
	call	__ZNSsC1Ev
LEHE1:
	movl	8(%ebp), %eax
	movl	16(%ebp), %edx
	movl	%edx, 8(%eax)
	addl	$20, %esp
	popl	%ebx
	.cfi_remember_state
	.cfi_restore 3
	popl	%ebp
	.cfi_def_cfa 4, 4
	.cfi_restore 5
	ret
L16:
	.cfi_restore_state
	movl	%eax, %ebx
	movl	8(%ebp), %eax
	movl	%eax, (%esp)
	call	__ZNSsD1Ev
	movl	%ebx, %eax
	movl	%eax, (%esp)
LEHB2:
	call	__Unwind_Resume
LEHE2:
	.cfi_endproc
LFE1815:
	.def	___gxx_personality_v0;	.scl	2;	.type	32;	.endef
	.section	.gcc_except_table,"w"
LLSDA1815:
	.byte	0xff
	.byte	0xff
	.byte	0x1
	.uleb128 LLSDACSE1815-LLSDACSB1815
LLSDACSB1815:
	.uleb128 LEHB0-LFB1815
	.uleb128 LEHE0-LEHB0
	.uleb128 0
	.uleb128 0
	.uleb128 LEHB1-LFB1815
	.uleb128 LEHE1-LEHB1
	.uleb128 L16-LFB1815
	.uleb128 0
	.uleb128 LEHB2-LFB1815
	.uleb128 LEHE2-LEHB2
	.uleb128 0
	.uleb128 0
LLSDACSE1815:
	.text
	.align 2
	.globl	__ZN16ByteCodeMnemonicC2ESsSsj
	.def	__ZN16ByteCodeMnemonicC2ESsSsj;	.scl	2;	.type	32;	.endef
__ZN16ByteCodeMnemonicC2ESsSsj:
LFB1818:
	.cfi_startproc
	.cfi_personality 0,___gxx_personality_v0
	.cfi_lsda 0,LLSDA1818
	pushl	%ebp
	.cfi_def_cfa_offset 8
	.cfi_offset 5, -8
	movl	%esp, %ebp
	.cfi_def_cfa_register 5
	pushl	%ebx
	subl	$20, %esp
	movl	8(%ebp), %eax
	movl	12(%ebp), %edx
	movl	%edx, 4(%esp)
	movl	%eax, (%esp)
LEHB3:
	.cfi_offset 3, -12
	call	__ZNSsC1ERKSs
LEHE3:
	movl	8(%ebp), %eax
	leal	4(%eax), %edx
	movl	16(%ebp), %eax
	movl	%eax, 4(%esp)
	movl	%edx, (%esp)
LEHB4:
	call	__ZNSsC1ERKSs
LEHE4:
	movl	8(%ebp), %eax
	movl	20(%ebp), %edx
	movl	%edx, 8(%eax)
	addl	$20, %esp
	popl	%ebx
	.cfi_remember_state
	.cfi_restore 3
	popl	%ebp
	.cfi_def_cfa 4, 4
	.cfi_restore 5
	ret
L19:
	.cfi_restore_state
	movl	%eax, %ebx
	movl	8(%ebp), %eax
	movl	%eax, (%esp)
	call	__ZNSsD1Ev
	movl	%ebx, %eax
	movl	%eax, (%esp)
LEHB5:
	call	__Unwind_Resume
LEHE5:
	.cfi_endproc
LFE1818:
	.section	.gcc_except_table,"w"
LLSDA1818:
	.byte	0xff
	.byte	0xff
	.byte	0x1
	.uleb128 LLSDACSE1818-LLSDACSB1818
LLSDACSB1818:
	.uleb128 LEHB3-LFB1818
	.uleb128 LEHE3-LEHB3
	.uleb128 0
	.uleb128 0
	.uleb128 LEHB4-LFB1818
	.uleb128 LEHE4-LEHB4
	.uleb128 L19-LFB1818
	.uleb128 0
	.uleb128 LEHB5-LFB1818
	.uleb128 LEHE5-LEHB5
	.uleb128 0
	.uleb128 0
LLSDACSE1818:
	.text
	.globl	__Z10StringTrimRKSs
	.def	__Z10StringTrimRKSs;	.scl	2;	.type	32;	.endef
__Z10StringTrimRKSs:
LFB1822:
	.cfi_startproc
	.cfi_personality 0,___gxx_personality_v0
	.cfi_lsda 0,LLSDA1822
	pushl	%ebp
	.cfi_def_cfa_offset 8
	.cfi_offset 5, -8
	movl	%esp, %ebp
	.cfi_def_cfa_register 5
	pushl	%ebx
	subl	$52, %esp
	movl	12(%ebp), %eax
	movl	%eax, 4(%esp)
	movl	8(%ebp), %eax
	movl	%eax, (%esp)
LEHB6:
	.cfi_offset 3, -12
	call	__ZNSsC1ERKSs
LEHE6:
	movl	8(%ebp), %eax
	movl	%eax, (%esp)
LEHB7:
	call	__ZNSs5beginEv
	movl	%eax, -28(%ebp)
	movl	$_isspace, (%esp)
	call	__ZSt7ptr_funIiiESt25pointer_to_unary_functionIT_T0_EPFS2_S1_E
	movl	%eax, -24(%ebp)
	leal	-24(%ebp), %eax
	movl	%eax, (%esp)
	call	__ZSt4not1ISt25pointer_to_unary_functionIiiEESt12unary_negateIT_ERKS3_
	movl	%eax, -32(%ebp)
	movl	8(%ebp), %eax
	movl	%eax, (%esp)
	call	__ZNSs3endEv
	movl	-32(%ebp), %edx
	movl	%edx, 8(%esp)
	movl	%eax, 4(%esp)
	movl	-28(%ebp), %eax
	movl	%eax, (%esp)
	call	__ZSt7find_ifIN9__gnu_cxx17__normal_iteratorIPcSsEESt12unary_negateISt25pointer_to_unary_functionIiiEEET_S8_S8_T0_
	movl	%eax, 8(%esp)
	movl	-28(%ebp), %eax
	movl	%eax, 4(%esp)
	movl	8(%ebp), %eax
	movl	%eax, (%esp)
	call	__ZNSs5eraseEN9__gnu_cxx17__normal_iteratorIPcSsEES2_
	movl	8(%ebp), %eax
	movl	%eax, (%esp)
	call	__ZNSs3endEv
	movl	%eax, %ebx
	leal	-16(%ebp), %eax
	movl	8(%ebp), %edx
	movl	%edx, 4(%esp)
	movl	%eax, (%esp)
	call	__ZNSs4rendEv
	subl	$4, %esp
	leal	-12(%ebp), %eax
	movl	8(%ebp), %edx
	movl	%edx, 4(%esp)
	movl	%eax, (%esp)
	call	__ZNSs6rbeginEv
	subl	$4, %esp
	leal	-20(%ebp), %eax
	movl	-32(%ebp), %edx
	movl	%edx, 12(%esp)
	leal	-16(%ebp), %edx
	movl	%edx, 8(%esp)
	leal	-12(%ebp), %edx
	movl	%edx, 4(%esp)
	movl	%eax, (%esp)
	call	__ZSt7find_ifISt16reverse_iteratorIN9__gnu_cxx17__normal_iteratorIPcSsEEESt12unary_negateISt25pointer_to_unary_functionIiiEEET_SA_SA_T0_
	subl	$4, %esp
	leal	-20(%ebp), %eax
	movl	%eax, (%esp)
	call	__ZNKSt16reverse_iteratorIN9__gnu_cxx17__normal_iteratorIPcSsEEE4baseEv
	movl	%ebx, 8(%esp)
	movl	%eax, 4(%esp)
	movl	8(%ebp), %eax
	movl	%eax, (%esp)
	call	__ZNSs5eraseEN9__gnu_cxx17__normal_iteratorIPcSsEES2_
LEHE7:
	movl	8(%ebp), %eax
	movl	-4(%ebp), %ebx
	leave
	.cfi_remember_state
	.cfi_restore 5
	.cfi_def_cfa 4, 4
	.cfi_restore 3
	ret	$4
L22:
	.cfi_restore_state
	movl	%eax, %ebx
	movl	8(%ebp), %eax
	movl	%eax, (%esp)
	call	__ZNSsD1Ev
	movl	%ebx, %eax
	movl	%eax, (%esp)
LEHB8:
	call	__Unwind_Resume
LEHE8:
	.cfi_endproc
LFE1822:
	.section	.gcc_except_table,"w"
LLSDA1822:
	.byte	0xff
	.byte	0xff
	.byte	0x1
	.uleb128 LLSDACSE1822-LLSDACSB1822
LLSDACSB1822:
	.uleb128 LEHB6-LFB1822
	.uleb128 LEHE6-LEHB6
	.uleb128 0
	.uleb128 0
	.uleb128 LEHB7-LFB1822
	.uleb128 LEHE7-LEHB7
	.uleb128 L22-LFB1822
	.uleb128 0
	.uleb128 LEHB8-LFB1822
	.uleb128 LEHE8-LEHB8
	.uleb128 0
	.uleb128 0
LLSDACSE1822:
	.text
	.globl	__Z11ShowMessageRKSsN11MessageType5TypesE
	.def	__Z11ShowMessageRKSsN11MessageType5TypesE;	.scl	2;	.type	32;	.endef
__Z11ShowMessageRKSsN11MessageType5TypesE:
LFB1823:
	.cfi_startproc
	pushl	%ebp
	.cfi_def_cfa_offset 8
	.cfi_offset 5, -8
	movl	%esp, %ebp
	.cfi_def_cfa_register 5
	subl	$24, %esp
	movl	12(%ebp), %eax
	cmpl	$1, %eax
	jne	L27
L25:
	movl	8(%ebp), %eax
	movl	%eax, 4(%esp)
	movl	$__ZSt4cerr, (%esp)
	call	__ZStlsIcSt11char_traitsIcESaIcEERSt13basic_ostreamIT_T0_ES7_RKSbIS4_S5_T1_E
	movl	$__ZSt4endlIcSt11char_traitsIcEERSt13basic_ostreamIT_T0_ES6_, 4(%esp)
	movl	%eax, (%esp)
	call	__ZNSolsEPFRSoS_E
	jmp	L23
L27:
	movl	8(%ebp), %eax
	movl	%eax, 4(%esp)
	movl	$__ZSt4cout, (%esp)
	call	__ZStlsIcSt11char_traitsIcESaIcEERSt13basic_ostreamIT_T0_ES7_RKSbIS4_S5_T1_E
	movl	$__ZSt4endlIcSt11char_traitsIcEERSt13basic_ostreamIT_T0_ES6_, 4(%esp)
	movl	%eax, (%esp)
	call	__ZNSolsEPFRSoS_E
	nop
L23:
	leave
	.cfi_restore 5
	.cfi_def_cfa 4, 4
	ret
	.cfi_endproc
LFE1823:
	.section .rdata,"dr"
LC0:
	.ascii "Code:\12\0"
LC1:
	.ascii " \0"
LC2:
	.ascii "\12\0"
	.text
	.globl	__Z13ShowCodeLinesRKSt3mapIjSsSt4lessIjESaISt4pairIKjSsEEE
	.def	__Z13ShowCodeLinesRKSt3mapIjSsSt4lessIjESaISt4pairIKjSsEEE;	.scl	2;	.type	32;	.endef
__Z13ShowCodeLinesRKSt3mapIjSsSt4lessIjESaISt4pairIKjSsEEE:
LFB1824:
	.cfi_startproc
	.cfi_personality 0,___gxx_personality_v0
	.cfi_lsda 0,LLSDA1824
	pushl	%ebp
	.cfi_def_cfa_offset 8
	.cfi_offset 5, -8
	movl	%esp, %ebp
	.cfi_def_cfa_register 5
	pushl	%ebx
	subl	$52, %esp
	leal	-29(%ebp), %eax
	movl	%eax, (%esp)
	.cfi_offset 3, -12
	call	__ZNSaIcEC1Ev
	leal	-29(%ebp), %eax
	movl	%eax, 8(%esp)
	movl	$LC0, 4(%esp)
	leal	-36(%ebp), %eax
	movl	%eax, (%esp)
LEHB9:
	call	__ZNSsC1EPKcRKSaIcE
LEHE9:
	leal	-29(%ebp), %eax
	movl	%eax, (%esp)
	call	__ZNSaIcED1Ev
	movl	8(%ebp), %eax
	movl	%eax, (%esp)
LEHB10:
	call	__ZNKSt3mapIjSsSt4lessIjESaISt4pairIKjSsEEE5beginEv
	movl	%eax, -40(%ebp)
	jmp	L29
L30:
	leal	-40(%ebp), %eax
	movl	%eax, (%esp)
	call	__ZNKSt23_Rb_tree_const_iteratorISt4pairIKjSsEEptEv
	leal	4(%eax), %ebx
	leal	-40(%ebp), %eax
	movl	%eax, (%esp)
	call	__ZNKSt23_Rb_tree_const_iteratorISt4pairIKjSsEEptEv
	movl	(%eax), %edx
	leal	-12(%ebp), %eax
	movl	%edx, 4(%esp)
	movl	%eax, (%esp)
	call	__Z15ConvertToStringIjESsT_
LEHE10:
	subl	$4, %esp
	leal	-16(%ebp), %eax
	movl	$LC1, 8(%esp)
	leal	-12(%ebp), %edx
	movl	%edx, 4(%esp)
	movl	%eax, (%esp)
LEHB11:
	call	__ZStplIcSt11char_traitsIcESaIcEESbIT_T0_T1_ERKS6_PKS3_
LEHE11:
	subl	$4, %esp
	leal	-20(%ebp), %eax
	movl	%ebx, 8(%esp)
	leal	-16(%ebp), %edx
	movl	%edx, 4(%esp)
	movl	%eax, (%esp)
LEHB12:
	call	__ZStplIcSt11char_traitsIcESaIcEESbIT_T0_T1_ERKS6_S8_
LEHE12:
	subl	$4, %esp
	leal	-24(%ebp), %eax
	movl	$LC2, 8(%esp)
	leal	-20(%ebp), %edx
	movl	%edx, 4(%esp)
	movl	%eax, (%esp)
LEHB13:
	call	__ZStplIcSt11char_traitsIcESaIcEESbIT_T0_T1_ERKS6_PKS3_
LEHE13:
	subl	$4, %esp
	leal	-24(%ebp), %eax
	movl	%eax, 4(%esp)
	leal	-36(%ebp), %eax
	movl	%eax, (%esp)
LEHB14:
	call	__ZNSspLERKSs
LEHE14:
	leal	-24(%ebp), %eax
	movl	%eax, (%esp)
LEHB15:
	call	__ZNSsD1Ev
LEHE15:
	leal	-20(%ebp), %eax
	movl	%eax, (%esp)
LEHB16:
	call	__ZNSsD1Ev
LEHE16:
	leal	-16(%ebp), %eax
	movl	%eax, (%esp)
LEHB17:
	call	__ZNSsD1Ev
LEHE17:
	leal	-12(%ebp), %eax
	movl	%eax, (%esp)
LEHB18:
	call	__ZNSsD1Ev
	leal	-40(%ebp), %eax
	movl	%eax, (%esp)
	call	__ZNSt23_Rb_tree_const_iteratorISt4pairIKjSsEEppEv
L29:
	movl	8(%ebp), %eax
	movl	%eax, (%esp)
	call	__ZNKSt3mapIjSsSt4lessIjESaISt4pairIKjSsEEE3endEv
	movl	%eax, -28(%ebp)
	leal	-28(%ebp), %eax
	movl	%eax, 4(%esp)
	leal	-40(%ebp), %eax
	movl	%eax, (%esp)
	call	__ZNKSt23_Rb_tree_const_iteratorISt4pairIKjSsEEneERKS3_
	testb	%al, %al
	jne	L30
	movl	$0, 4(%esp)
	leal	-36(%ebp), %eax
	movl	%eax, (%esp)
	call	__Z11ShowMessageRKSsN11MessageType5TypesE
LEHE18:
	leal	-36(%ebp), %eax
	movl	%eax, (%esp)
LEHB19:
	call	__ZNSsD1Ev
	movl	-4(%ebp), %ebx
	leave
	.cfi_remember_state
	.cfi_restore 5
	.cfi_def_cfa 4, 4
	.cfi_restore 3
	ret
L37:
	.cfi_restore_state
	movl	%eax, %ebx
	leal	-29(%ebp), %eax
	movl	%eax, (%esp)
	call	__ZNSaIcED1Ev
	movl	%ebx, %eax
	movl	%eax, (%esp)
	call	__Unwind_Resume
LEHE19:
L42:
	movl	%eax, %ebx
	leal	-24(%ebp), %eax
	movl	%eax, (%esp)
	call	__ZNSsD1Ev
	jmp	L33
L41:
	movl	%eax, %ebx
L33:
	leal	-20(%ebp), %eax
	movl	%eax, (%esp)
	call	__ZNSsD1Ev
	jmp	L34
L40:
	movl	%eax, %ebx
L34:
	leal	-16(%ebp), %eax
	movl	%eax, (%esp)
	call	__ZNSsD1Ev
	jmp	L35
L39:
	movl	%eax, %ebx
L35:
	leal	-12(%ebp), %eax
	movl	%eax, (%esp)
	call	__ZNSsD1Ev
	jmp	L36
L38:
	movl	%eax, %ebx
L36:
	leal	-36(%ebp), %eax
	movl	%eax, (%esp)
	call	__ZNSsD1Ev
	movl	%ebx, %eax
	movl	%eax, (%esp)
LEHB20:
	call	__Unwind_Resume
LEHE20:
	.cfi_endproc
LFE1824:
	.section	.gcc_except_table,"w"
LLSDA1824:
	.byte	0xff
	.byte	0xff
	.byte	0x1
	.uleb128 LLSDACSE1824-LLSDACSB1824
LLSDACSB1824:
	.uleb128 LEHB9-LFB1824
	.uleb128 LEHE9-LEHB9
	.uleb128 L37-LFB1824
	.uleb128 0
	.uleb128 LEHB10-LFB1824
	.uleb128 LEHE10-LEHB10
	.uleb128 L38-LFB1824
	.uleb128 0
	.uleb128 LEHB11-LFB1824
	.uleb128 LEHE11-LEHB11
	.uleb128 L39-LFB1824
	.uleb128 0
	.uleb128 LEHB12-LFB1824
	.uleb128 LEHE12-LEHB12
	.uleb128 L40-LFB1824
	.uleb128 0
	.uleb128 LEHB13-LFB1824
	.uleb128 LEHE13-LEHB13
	.uleb128 L41-LFB1824
	.uleb128 0
	.uleb128 LEHB14-LFB1824
	.uleb128 LEHE14-LEHB14
	.uleb128 L42-LFB1824
	.uleb128 0
	.uleb128 LEHB15-LFB1824
	.uleb128 LEHE15-LEHB15
	.uleb128 L41-LFB1824
	.uleb128 0
	.uleb128 LEHB16-LFB1824
	.uleb128 LEHE16-LEHB16
	.uleb128 L40-LFB1824
	.uleb128 0
	.uleb128 LEHB17-LFB1824
	.uleb128 LEHE17-LEHB17
	.uleb128 L39-LFB1824
	.uleb128 0
	.uleb128 LEHB18-LFB1824
	.uleb128 LEHE18-LEHB18
	.uleb128 L38-LFB1824
	.uleb128 0
	.uleb128 LEHB19-LFB1824
	.uleb128 LEHE19-LEHB19
	.uleb128 0
	.uleb128 0
	.uleb128 LEHB20-LFB1824
	.uleb128 LEHE20-LEHB20
	.uleb128 0
	.uleb128 0
LLSDACSE1824:
	.text
	.section	.text$_ZNSt4pairISsSsEC1ERKS0_,"x"
	.linkonce discard
	.align 2
	.globl	__ZNSt4pairISsSsEC1ERKS0_
	.def	__ZNSt4pairISsSsEC1ERKS0_;	.scl	2;	.type	32;	.endef
__ZNSt4pairISsSsEC1ERKS0_:
LFB1828:
	.cfi_startproc
	.cfi_personality 0,___gxx_personality_v0
	.cfi_lsda 0,LLSDA1828
	pushl	%ebp
	.cfi_def_cfa_offset 8
	.cfi_offset 5, -8
	movl	%esp, %ebp
	.cfi_def_cfa_register 5
	pushl	%ebx
	subl	$20, %esp
	movl	12(%ebp), %edx
	movl	8(%ebp), %eax
	movl	%edx, 4(%esp)
	movl	%eax, (%esp)
LEHB21:
	.cfi_offset 3, -12
	call	__ZNSsC1ERKSs
LEHE21:
	movl	12(%ebp), %eax
	leal	4(%eax), %edx
	movl	8(%ebp), %eax
	addl	$4, %eax
	movl	%edx, 4(%esp)
	movl	%eax, (%esp)
LEHB22:
	call	__ZNSsC1ERKSs
LEHE22:
	jmp	L46
L45:
	movl	%eax, %ebx
	movl	8(%ebp), %eax
	movl	%eax, (%esp)
	call	__ZNSsD1Ev
	movl	%ebx, %eax
	movl	%eax, (%esp)
LEHB23:
	call	__Unwind_Resume
LEHE23:
L46:
	addl	$20, %esp
	popl	%ebx
	.cfi_restore 3
	popl	%ebp
	.cfi_def_cfa 4, 4
	.cfi_restore 5
	ret
	.cfi_endproc
LFE1828:
	.section	.gcc_except_table,"w"
LLSDA1828:
	.byte	0xff
	.byte	0xff
	.byte	0x1
	.uleb128 LLSDACSE1828-LLSDACSB1828
LLSDACSB1828:
	.uleb128 LEHB21-LFB1828
	.uleb128 LEHE21-LEHB21
	.uleb128 0
	.uleb128 0
	.uleb128 LEHB22-LFB1828
	.uleb128 LEHE22-LEHB22
	.uleb128 L45-LFB1828
	.uleb128 0
	.uleb128 LEHB23-LFB1828
	.uleb128 LEHE23-LEHB23
	.uleb128 0
	.uleb128 0
LLSDACSE1828:
	.section	.text$_ZNSt4pairISsSsEC1ERKS0_,"x"
	.linkonce discard
	.section	.text$_ZNSt4pairISsSsED1Ev,"x"
	.linkonce discard
	.align 2
	.globl	__ZNSt4pairISsSsED1Ev
	.def	__ZNSt4pairISsSsED1Ev;	.scl	2;	.type	32;	.endef
__ZNSt4pairISsSsED1Ev:
LFB1831:
	.cfi_startproc
	.cfi_personality 0,___gxx_personality_v0
	.cfi_lsda 0,LLSDA1831
	pushl	%ebp
	.cfi_def_cfa_offset 8
	.cfi_offset 5, -8
	movl	%esp, %ebp
	.cfi_def_cfa_register 5
	pushl	%ebx
	subl	$20, %esp
	movl	8(%ebp), %eax
	addl	$4, %eax
	movl	%eax, (%esp)
LEHB24:
	.cfi_offset 3, -12
	call	__ZNSsD1Ev
LEHE24:
	movl	8(%ebp), %eax
	movl	%eax, (%esp)
LEHB25:
	call	__ZNSsD1Ev
LEHE25:
	addl	$20, %esp
	popl	%ebx
	.cfi_remember_state
	.cfi_restore 3
	popl	%ebp
	.cfi_def_cfa 4, 4
	.cfi_restore 5
	ret
L50:
	.cfi_restore_state
	movl	%eax, %ebx
	movl	8(%ebp), %eax
	movl	%eax, (%esp)
	call	__ZNSsD1Ev
	movl	%ebx, %eax
	movl	%eax, (%esp)
LEHB26:
	call	__Unwind_Resume
LEHE26:
	.cfi_endproc
LFE1831:
	.section	.gcc_except_table,"w"
LLSDA1831:
	.byte	0xff
	.byte	0xff
	.byte	0x1
	.uleb128 LLSDACSE1831-LLSDACSB1831
LLSDACSB1831:
	.uleb128 LEHB24-LFB1831
	.uleb128 LEHE24-LEHB24
	.uleb128 L50-LFB1831
	.uleb128 0
	.uleb128 LEHB25-LFB1831
	.uleb128 LEHE25-LEHB25
	.uleb128 0
	.uleb128 0
	.uleb128 LEHB26-LFB1831
	.uleb128 LEHE26-LEHB26
	.uleb128 0
	.uleb128 0
LLSDACSE1831:
	.section	.text$_ZNSt4pairISsSsED1Ev,"x"
	.linkonce discard
	.section .rdata,"dr"
LC3:
	.ascii "Libraries:\12\0"
LC4:
	.ascii " -L\0"
LC5:
	.ascii " -l\0"
LC6:
	.ascii "\12Functions:\12\0"
LC7:
	.ascii " arguments)\0"
LC8:
	.ascii " argument)\0"
LC9:
	.ascii " (\0"
LC10:
	.ascii "\12Variables:\12\0"
LC11:
	.ascii "\12Byte code:\12\0"
	.text
	.globl	__Z12ShowByteCodeRK14ByteCodeModule
	.def	__Z12ShowByteCodeRK14ByteCodeModule;	.scl	2;	.type	32;	.endef
__Z12ShowByteCodeRK14ByteCodeModule:
LFB1825:
	.cfi_startproc
	.cfi_personality 0,___gxx_personality_v0
	.cfi_lsda 0,LLSDA1825
	pushl	%ebp
	.cfi_def_cfa_offset 8
	.cfi_offset 5, -8
	movl	%esp, %ebp
	.cfi_def_cfa_register 5
	pushl	%esi
	pushl	%ebx
	addl	$-128, %esp
	leal	-89(%ebp), %eax
	movl	%eax, (%esp)
	.cfi_offset 3, -16
	.cfi_offset 6, -12
	call	__ZNSaIcEC1Ev
	leal	-89(%ebp), %eax
	movl	%eax, 8(%esp)
	movl	$LC3, 4(%esp)
	leal	-96(%ebp), %eax
	movl	%eax, (%esp)
LEHB27:
	call	__ZNSsC1EPKcRKSaIcE
LEHE27:
	leal	-89(%ebp), %eax
	movl	%eax, (%esp)
	call	__ZNSaIcED1Ev
	movl	8(%ebp), %eax
	addl	$80, %eax
	movl	%eax, (%esp)
LEHB28:
	call	__ZNKSt4listISt4pairISsSsESaIS1_EE5beginEv
	movl	%eax, -100(%ebp)
	jmp	L52
L53:
	leal	-100(%ebp), %eax
	movl	%eax, (%esp)
	call	__ZNKSt20_List_const_iteratorISt4pairISsSsEEdeEv
	movl	%eax, 4(%esp)
	leal	-120(%ebp), %eax
	movl	%eax, (%esp)
	call	__ZNSt4pairISsSsEC1ERKS0_
LEHE28:
	leal	-72(%ebp), %eax
	leal	-120(%ebp), %edx
	addl	$4, %edx
	movl	%edx, 8(%esp)
	movl	$LC4, 4(%esp)
	movl	%eax, (%esp)
LEHB29:
	call	__ZStplIcSt11char_traitsIcESaIcEESbIT_T0_T1_EPKS3_RKS6_
LEHE29:
	subl	$4, %esp
	leal	-76(%ebp), %eax
	movl	$LC5, 8(%esp)
	leal	-72(%ebp), %edx
	movl	%edx, 4(%esp)
	movl	%eax, (%esp)
LEHB30:
	call	__ZStplIcSt11char_traitsIcESaIcEESbIT_T0_T1_ERKS6_PKS3_
LEHE30:
	subl	$4, %esp
	leal	-80(%ebp), %eax
	leal	-120(%ebp), %edx
	movl	%edx, 8(%esp)
	leal	-76(%ebp), %edx
	movl	%edx, 4(%esp)
	movl	%eax, (%esp)
LEHB31:
	call	__ZStplIcSt11char_traitsIcESaIcEESbIT_T0_T1_ERKS6_S8_
LEHE31:
	subl	$4, %esp
	leal	-84(%ebp), %eax
	movl	$LC2, 8(%esp)
	leal	-80(%ebp), %edx
	movl	%edx, 4(%esp)
	movl	%eax, (%esp)
LEHB32:
	call	__ZStplIcSt11char_traitsIcESaIcEESbIT_T0_T1_ERKS6_PKS3_
LEHE32:
	subl	$4, %esp
	leal	-84(%ebp), %eax
	movl	%eax, 4(%esp)
	leal	-96(%ebp), %eax
	movl	%eax, (%esp)
LEHB33:
	call	__ZNSspLERKSs
LEHE33:
	leal	-84(%ebp), %eax
	movl	%eax, (%esp)
LEHB34:
	call	__ZNSsD1Ev
LEHE34:
	leal	-80(%ebp), %eax
	movl	%eax, (%esp)
LEHB35:
	call	__ZNSsD1Ev
LEHE35:
	leal	-76(%ebp), %eax
	movl	%eax, (%esp)
LEHB36:
	call	__ZNSsD1Ev
LEHE36:
	leal	-72(%ebp), %eax
	movl	%eax, (%esp)
LEHB37:
	call	__ZNSsD1Ev
LEHE37:
	leal	-120(%ebp), %eax
	movl	%eax, (%esp)
LEHB38:
	call	__ZNSt4pairISsSsED1Ev
	leal	-100(%ebp), %eax
	movl	%eax, (%esp)
	call	__ZNSt20_List_const_iteratorISt4pairISsSsEEppEv
L52:
	movl	8(%ebp), %eax
	addl	$80, %eax
	movl	%eax, (%esp)
	call	__ZNKSt4listISt4pairISsSsESaIS1_EE3endEv
	movl	%eax, -88(%ebp)
	leal	-88(%ebp), %eax
	movl	%eax, 4(%esp)
	leal	-100(%ebp), %eax
	movl	%eax, (%esp)
	call	__ZNKSt20_List_const_iteratorISt4pairISsSsEEneERKS2_
	testb	%al, %al
	jne	L53
	movl	$LC6, 4(%esp)
	leal	-96(%ebp), %eax
	movl	%eax, (%esp)
	call	__ZNSspLEPKc
	movl	8(%ebp), %eax
	addl	$56, %eax
	movl	%eax, (%esp)
	call	__ZNKSt3mapISsjSt4lessISsESaISt4pairIKSsjEEE5beginEv
	movl	%eax, -104(%ebp)
	jmp	L54
L57:
	leal	-104(%ebp), %eax
	movl	%eax, (%esp)
	call	__ZNKSt23_Rb_tree_const_iteratorISt4pairIKSsjEEptEv
	movl	4(%eax), %eax
	cmpl	$1, %eax
	je	L55
	movl	$LC7, %ebx
	jmp	L56
L55:
	movl	$LC8, %ebx
L56:
	leal	-104(%ebp), %eax
	movl	%eax, (%esp)
	call	__ZNKSt23_Rb_tree_const_iteratorISt4pairIKSsjEEptEv
	movl	4(%eax), %edx
	leal	-52(%ebp), %eax
	movl	%edx, 4(%esp)
	movl	%eax, (%esp)
	call	__Z15ConvertToStringIjESsT_
LEHE38:
	subl	$4, %esp
	leal	-104(%ebp), %eax
	movl	%eax, (%esp)
LEHB39:
	call	__ZNKSt23_Rb_tree_const_iteratorISt4pairIKSsjEEptEv
	movl	%eax, %edx
	leal	-48(%ebp), %eax
	movl	$LC9, 8(%esp)
	movl	%edx, 4(%esp)
	movl	%eax, (%esp)
	call	__ZStplIcSt11char_traitsIcESaIcEESbIT_T0_T1_ERKS6_PKS3_
LEHE39:
	subl	$4, %esp
	leal	-56(%ebp), %eax
	leal	-52(%ebp), %edx
	movl	%edx, 8(%esp)
	leal	-48(%ebp), %edx
	movl	%edx, 4(%esp)
	movl	%eax, (%esp)
LEHB40:
	call	__ZStplIcSt11char_traitsIcESaIcEESbIT_T0_T1_ERKS6_S8_
LEHE40:
	subl	$4, %esp
	leal	-60(%ebp), %eax
	movl	%ebx, 8(%esp)
	leal	-56(%ebp), %edx
	movl	%edx, 4(%esp)
	movl	%eax, (%esp)
LEHB41:
	call	__ZStplIcSt11char_traitsIcESaIcEESbIT_T0_T1_ERKS6_PKS3_
LEHE41:
	subl	$4, %esp
	leal	-64(%ebp), %eax
	movl	$LC2, 8(%esp)
	leal	-60(%ebp), %edx
	movl	%edx, 4(%esp)
	movl	%eax, (%esp)
LEHB42:
	call	__ZStplIcSt11char_traitsIcESaIcEESbIT_T0_T1_ERKS6_PKS3_
LEHE42:
	subl	$4, %esp
	leal	-64(%ebp), %eax
	movl	%eax, 4(%esp)
	leal	-96(%ebp), %eax
	movl	%eax, (%esp)
LEHB43:
	call	__ZNSspLERKSs
LEHE43:
	leal	-64(%ebp), %eax
	movl	%eax, (%esp)
LEHB44:
	call	__ZNSsD1Ev
LEHE44:
	leal	-60(%ebp), %eax
	movl	%eax, (%esp)
LEHB45:
	call	__ZNSsD1Ev
LEHE45:
	leal	-56(%ebp), %eax
	movl	%eax, (%esp)
LEHB46:
	call	__ZNSsD1Ev
LEHE46:
	leal	-48(%ebp), %eax
	movl	%eax, (%esp)
LEHB47:
	call	__ZNSsD1Ev
LEHE47:
	leal	-52(%ebp), %eax
	movl	%eax, (%esp)
LEHB48:
	call	__ZNSsD1Ev
	leal	-104(%ebp), %eax
	movl	%eax, (%esp)
	call	__ZNSt23_Rb_tree_const_iteratorISt4pairIKSsjEEppEv
L54:
	movl	8(%ebp), %eax
	addl	$56, %eax
	movl	%eax, (%esp)
	call	__ZNKSt3mapISsjSt4lessISsESaISt4pairIKSsjEEE3endEv
	movl	%eax, -68(%ebp)
	leal	-68(%ebp), %eax
	movl	%eax, 4(%esp)
	leal	-104(%ebp), %eax
	movl	%eax, (%esp)
	call	__ZNKSt23_Rb_tree_const_iteratorISt4pairIKSsjEEneERKS3_
	testb	%al, %al
	jne	L57
	movl	$LC10, 4(%esp)
	leal	-96(%ebp), %eax
	movl	%eax, (%esp)
	call	__ZNSspLEPKc
	movl	8(%ebp), %eax
	addl	$8, %eax
	movl	%eax, (%esp)
	call	__ZNKSt3setISsSt4lessISsESaISsEE5beginEv
	movl	%eax, -108(%ebp)
	jmp	L58
L59:
	leal	-108(%ebp), %eax
	movl	%eax, (%esp)
	call	__ZNKSt23_Rb_tree_const_iteratorISsEdeEv
	leal	-40(%ebp), %edx
	movl	$LC2, 8(%esp)
	movl	%eax, 4(%esp)
	movl	%edx, (%esp)
	call	__ZStplIcSt11char_traitsIcESaIcEESbIT_T0_T1_ERKS6_PKS3_
LEHE48:
	subl	$4, %esp
	leal	-40(%ebp), %eax
	movl	%eax, 4(%esp)
	leal	-96(%ebp), %eax
	movl	%eax, (%esp)
LEHB49:
	call	__ZNSspLERKSs
LEHE49:
	leal	-40(%ebp), %eax
	movl	%eax, (%esp)
LEHB50:
	call	__ZNSsD1Ev
	leal	-108(%ebp), %eax
	movl	%eax, (%esp)
	call	__ZNSt23_Rb_tree_const_iteratorISsEppEv
L58:
	movl	8(%ebp), %eax
	addl	$8, %eax
	movl	%eax, (%esp)
	call	__ZNKSt3setISsSt4lessISsESaISsEE3endEv
	movl	%eax, -44(%ebp)
	leal	-44(%ebp), %eax
	movl	%eax, 4(%esp)
	leal	-108(%ebp), %eax
	movl	%eax, (%esp)
	call	__ZNKSt23_Rb_tree_const_iteratorISsEneERKS0_
	testb	%al, %al
	jne	L59
	movl	$LC11, 4(%esp)
	leal	-96(%ebp), %eax
	movl	%eax, (%esp)
	call	__ZNSspLEPKc
	movl	8(%ebp), %eax
	movl	%eax, (%esp)
	call	__ZNKSt4listI16ByteCodeMnemonicSaIS0_EE5beginEv
	movl	%eax, -112(%ebp)
	jmp	L60
L61:
	leal	-112(%ebp), %eax
	movl	%eax, (%esp)
	call	__ZNKSt20_List_const_iteratorI16ByteCodeMnemonicEdeEv
	leal	4(%eax), %esi
	leal	-112(%ebp), %eax
	movl	%eax, (%esp)
	call	__ZNKSt20_List_const_iteratorI16ByteCodeMnemonicEdeEv
	movl	%eax, %ebx
	leal	-112(%ebp), %eax
	movl	%eax, (%esp)
	call	__ZNKSt20_List_const_iteratorI16ByteCodeMnemonicEdeEv
	movl	8(%eax), %edx
	leal	-12(%ebp), %eax
	movl	%edx, 4(%esp)
	movl	%eax, (%esp)
	call	__Z15ConvertToStringIjESsT_
LEHE50:
	subl	$4, %esp
	leal	-16(%ebp), %eax
	movl	$LC1, 8(%esp)
	leal	-12(%ebp), %edx
	movl	%edx, 4(%esp)
	movl	%eax, (%esp)
LEHB51:
	call	__ZStplIcSt11char_traitsIcESaIcEESbIT_T0_T1_ERKS6_PKS3_
LEHE51:
	subl	$4, %esp
	leal	-20(%ebp), %eax
	movl	%ebx, 8(%esp)
	leal	-16(%ebp), %edx
	movl	%edx, 4(%esp)
	movl	%eax, (%esp)
LEHB52:
	call	__ZStplIcSt11char_traitsIcESaIcEESbIT_T0_T1_ERKS6_S8_
LEHE52:
	subl	$4, %esp
	leal	-24(%ebp), %eax
	movl	$LC1, 8(%esp)
	leal	-20(%ebp), %edx
	movl	%edx, 4(%esp)
	movl	%eax, (%esp)
LEHB53:
	call	__ZStplIcSt11char_traitsIcESaIcEESbIT_T0_T1_ERKS6_PKS3_
LEHE53:
	subl	$4, %esp
	leal	-28(%ebp), %eax
	movl	%esi, 8(%esp)
	leal	-24(%ebp), %edx
	movl	%edx, 4(%esp)
	movl	%eax, (%esp)
LEHB54:
	call	__ZStplIcSt11char_traitsIcESaIcEESbIT_T0_T1_ERKS6_S8_
LEHE54:
	subl	$4, %esp
	leal	-32(%ebp), %eax
	movl	$LC2, 8(%esp)
	leal	-28(%ebp), %edx
	movl	%edx, 4(%esp)
	movl	%eax, (%esp)
LEHB55:
	call	__ZStplIcSt11char_traitsIcESaIcEESbIT_T0_T1_ERKS6_PKS3_
LEHE55:
	subl	$4, %esp
	leal	-32(%ebp), %eax
	movl	%eax, 4(%esp)
	leal	-96(%ebp), %eax
	movl	%eax, (%esp)
LEHB56:
	call	__ZNSspLERKSs
LEHE56:
	leal	-32(%ebp), %eax
	movl	%eax, (%esp)
LEHB57:
	call	__ZNSsD1Ev
LEHE57:
	leal	-28(%ebp), %eax
	movl	%eax, (%esp)
LEHB58:
	call	__ZNSsD1Ev
LEHE58:
	leal	-24(%ebp), %eax
	movl	%eax, (%esp)
LEHB59:
	call	__ZNSsD1Ev
LEHE59:
	leal	-20(%ebp), %eax
	movl	%eax, (%esp)
LEHB60:
	call	__ZNSsD1Ev
LEHE60:
	leal	-16(%ebp), %eax
	movl	%eax, (%esp)
LEHB61:
	call	__ZNSsD1Ev
LEHE61:
	leal	-12(%ebp), %eax
	movl	%eax, (%esp)
LEHB62:
	call	__ZNSsD1Ev
	leal	-112(%ebp), %eax
	movl	%eax, (%esp)
	call	__ZNSt20_List_const_iteratorI16ByteCodeMnemonicEppEv
L60:
	movl	8(%ebp), %eax
	movl	%eax, (%esp)
	call	__ZNKSt4listI16ByteCodeMnemonicSaIS0_EE3endEv
	movl	%eax, -36(%ebp)
	leal	-36(%ebp), %eax
	movl	%eax, 4(%esp)
	leal	-112(%ebp), %eax
	movl	%eax, (%esp)
	call	__ZNKSt20_List_const_iteratorI16ByteCodeMnemonicEneERKS1_
	testb	%al, %al
	jne	L61
	movl	$0, 4(%esp)
	leal	-96(%ebp), %eax
	movl	%eax, (%esp)
	call	__Z11ShowMessageRKSsN11MessageType5TypesE
LEHE62:
	leal	-96(%ebp), %eax
	movl	%eax, (%esp)
LEHB63:
	call	__ZNSsD1Ev
	leal	-8(%ebp), %esp
	popl	%ebx
	.cfi_remember_state
	.cfi_restore 3
	popl	%esi
	.cfi_restore 6
	popl	%ebp
	.cfi_def_cfa 4, 4
	.cfi_restore 5
	ret
L81:
	.cfi_restore_state
	movl	%eax, %ebx
	leal	-89(%ebp), %eax
	movl	%eax, (%esp)
	call	__ZNSaIcED1Ev
	movl	%ebx, %eax
	movl	%eax, (%esp)
	call	__Unwind_Resume
LEHE63:
L87:
	movl	%eax, %ebx
	leal	-84(%ebp), %eax
	movl	%eax, (%esp)
	call	__ZNSsD1Ev
	jmp	L64
L86:
	movl	%eax, %ebx
L64:
	leal	-80(%ebp), %eax
	movl	%eax, (%esp)
	call	__ZNSsD1Ev
	jmp	L65
L85:
	movl	%eax, %ebx
L65:
	leal	-76(%ebp), %eax
	movl	%eax, (%esp)
	call	__ZNSsD1Ev
	jmp	L66
L84:
	movl	%eax, %ebx
L66:
	leal	-72(%ebp), %eax
	movl	%eax, (%esp)
	call	__ZNSsD1Ev
	jmp	L67
L83:
	movl	%eax, %ebx
L67:
	leal	-120(%ebp), %eax
	movl	%eax, (%esp)
	call	__ZNSt4pairISsSsED1Ev
	jmp	L68
L92:
	movl	%eax, %ebx
	leal	-64(%ebp), %eax
	movl	%eax, (%esp)
	call	__ZNSsD1Ev
	jmp	L70
L91:
	movl	%eax, %ebx
L70:
	leal	-60(%ebp), %eax
	movl	%eax, (%esp)
	call	__ZNSsD1Ev
	jmp	L71
L90:
	movl	%eax, %ebx
L71:
	leal	-56(%ebp), %eax
	movl	%eax, (%esp)
	call	__ZNSsD1Ev
	jmp	L72
L89:
	movl	%eax, %ebx
L72:
	leal	-48(%ebp), %eax
	movl	%eax, (%esp)
	call	__ZNSsD1Ev
	jmp	L73
L88:
	movl	%eax, %ebx
L73:
	leal	-52(%ebp), %eax
	movl	%eax, (%esp)
	call	__ZNSsD1Ev
	jmp	L68
L93:
	movl	%eax, %ebx
	leal	-40(%ebp), %eax
	movl	%eax, (%esp)
	call	__ZNSsD1Ev
	jmp	L68
L99:
	movl	%eax, %ebx
	leal	-32(%ebp), %eax
	movl	%eax, (%esp)
	call	__ZNSsD1Ev
	jmp	L76
L98:
	movl	%eax, %ebx
L76:
	leal	-28(%ebp), %eax
	movl	%eax, (%esp)
	call	__ZNSsD1Ev
	jmp	L77
L97:
	movl	%eax, %ebx
L77:
	leal	-24(%ebp), %eax
	movl	%eax, (%esp)
	call	__ZNSsD1Ev
	jmp	L78
L96:
	movl	%eax, %ebx
L78:
	leal	-20(%ebp), %eax
	movl	%eax, (%esp)
	call	__ZNSsD1Ev
	jmp	L79
L95:
	movl	%eax, %ebx
L79:
	leal	-16(%ebp), %eax
	movl	%eax, (%esp)
	call	__ZNSsD1Ev
	jmp	L80
L94:
	movl	%eax, %ebx
L80:
	leal	-12(%ebp), %eax
	movl	%eax, (%esp)
	call	__ZNSsD1Ev
	jmp	L68
L82:
	movl	%eax, %ebx
L68:
	leal	-96(%ebp), %eax
	movl	%eax, (%esp)
	call	__ZNSsD1Ev
	movl	%ebx, %eax
	movl	%eax, (%esp)
LEHB64:
	call	__Unwind_Resume
LEHE64:
	.cfi_endproc
LFE1825:
	.section	.gcc_except_table,"w"
LLSDA1825:
	.byte	0xff
	.byte	0xff
	.byte	0x1
	.uleb128 LLSDACSE1825-LLSDACSB1825
LLSDACSB1825:
	.uleb128 LEHB27-LFB1825
	.uleb128 LEHE27-LEHB27
	.uleb128 L81-LFB1825
	.uleb128 0
	.uleb128 LEHB28-LFB1825
	.uleb128 LEHE28-LEHB28
	.uleb128 L82-LFB1825
	.uleb128 0
	.uleb128 LEHB29-LFB1825
	.uleb128 LEHE29-LEHB29
	.uleb128 L83-LFB1825
	.uleb128 0
	.uleb128 LEHB30-LFB1825
	.uleb128 LEHE30-LEHB30
	.uleb128 L84-LFB1825
	.uleb128 0
	.uleb128 LEHB31-LFB1825
	.uleb128 LEHE31-LEHB31
	.uleb128 L85-LFB1825
	.uleb128 0
	.uleb128 LEHB32-LFB1825
	.uleb128 LEHE32-LEHB32
	.uleb128 L86-LFB1825
	.uleb128 0
	.uleb128 LEHB33-LFB1825
	.uleb128 LEHE33-LEHB33
	.uleb128 L87-LFB1825
	.uleb128 0
	.uleb128 LEHB34-LFB1825
	.uleb128 LEHE34-LEHB34
	.uleb128 L86-LFB1825
	.uleb128 0
	.uleb128 LEHB35-LFB1825
	.uleb128 LEHE35-LEHB35
	.uleb128 L85-LFB1825
	.uleb128 0
	.uleb128 LEHB36-LFB1825
	.uleb128 LEHE36-LEHB36
	.uleb128 L84-LFB1825
	.uleb128 0
	.uleb128 LEHB37-LFB1825
	.uleb128 LEHE37-LEHB37
	.uleb128 L83-LFB1825
	.uleb128 0
	.uleb128 LEHB38-LFB1825
	.uleb128 LEHE38-LEHB38
	.uleb128 L82-LFB1825
	.uleb128 0
	.uleb128 LEHB39-LFB1825
	.uleb128 LEHE39-LEHB39
	.uleb128 L88-LFB1825
	.uleb128 0
	.uleb128 LEHB40-LFB1825
	.uleb128 LEHE40-LEHB40
	.uleb128 L89-LFB1825
	.uleb128 0
	.uleb128 LEHB41-LFB1825
	.uleb128 LEHE41-LEHB41
	.uleb128 L90-LFB1825
	.uleb128 0
	.uleb128 LEHB42-LFB1825
	.uleb128 LEHE42-LEHB42
	.uleb128 L91-LFB1825
	.uleb128 0
	.uleb128 LEHB43-LFB1825
	.uleb128 LEHE43-LEHB43
	.uleb128 L92-LFB1825
	.uleb128 0
	.uleb128 LEHB44-LFB1825
	.uleb128 LEHE44-LEHB44
	.uleb128 L91-LFB1825
	.uleb128 0
	.uleb128 LEHB45-LFB1825
	.uleb128 LEHE45-LEHB45
	.uleb128 L90-LFB1825
	.uleb128 0
	.uleb128 LEHB46-LFB1825
	.uleb128 LEHE46-LEHB46
	.uleb128 L89-LFB1825
	.uleb128 0
	.uleb128 LEHB47-LFB1825
	.uleb128 LEHE47-LEHB47
	.uleb128 L88-LFB1825
	.uleb128 0
	.uleb128 LEHB48-LFB1825
	.uleb128 LEHE48-LEHB48
	.uleb128 L82-LFB1825
	.uleb128 0
	.uleb128 LEHB49-LFB1825
	.uleb128 LEHE49-LEHB49
	.uleb128 L93-LFB1825
	.uleb128 0
	.uleb128 LEHB50-LFB1825
	.uleb128 LEHE50-LEHB50
	.uleb128 L82-LFB1825
	.uleb128 0
	.uleb128 LEHB51-LFB1825
	.uleb128 LEHE51-LEHB51
	.uleb128 L94-LFB1825
	.uleb128 0
	.uleb128 LEHB52-LFB1825
	.uleb128 LEHE52-LEHB52
	.uleb128 L95-LFB1825
	.uleb128 0
	.uleb128 LEHB53-LFB1825
	.uleb128 LEHE53-LEHB53
	.uleb128 L96-LFB1825
	.uleb128 0
	.uleb128 LEHB54-LFB1825
	.uleb128 LEHE54-LEHB54
	.uleb128 L97-LFB1825
	.uleb128 0
	.uleb128 LEHB55-LFB1825
	.uleb128 LEHE55-LEHB55
	.uleb128 L98-LFB1825
	.uleb128 0
	.uleb128 LEHB56-LFB1825
	.uleb128 LEHE56-LEHB56
	.uleb128 L99-LFB1825
	.uleb128 0
	.uleb128 LEHB57-LFB1825
	.uleb128 LEHE57-LEHB57
	.uleb128 L98-LFB1825
	.uleb128 0
	.uleb128 LEHB58-LFB1825
	.uleb128 LEHE58-LEHB58
	.uleb128 L97-LFB1825
	.uleb128 0
	.uleb128 LEHB59-LFB1825
	.uleb128 LEHE59-LEHB59
	.uleb128 L96-LFB1825
	.uleb128 0
	.uleb128 LEHB60-LFB1825
	.uleb128 LEHE60-LEHB60
	.uleb128 L95-LFB1825
	.uleb128 0
	.uleb128 LEHB61-LFB1825
	.uleb128 LEHE61-LEHB61
	.uleb128 L94-LFB1825
	.uleb128 0
	.uleb128 LEHB62-LFB1825
	.uleb128 LEHE62-LEHB62
	.uleb128 L82-LFB1825
	.uleb128 0
	.uleb128 LEHB63-LFB1825
	.uleb128 LEHE63-LEHB63
	.uleb128 0
	.uleb128 0
	.uleb128 LEHB64-LFB1825
	.uleb128 LEHE64-LEHB64
	.uleb128 0
	.uleb128 0
LLSDACSE1825:
	.text
	.globl	__Z12ProcessErrorRKSs
	.def	__Z12ProcessErrorRKSs;	.scl	2;	.type	32;	.endef
__Z12ProcessErrorRKSs:
LFB1832:
	.cfi_startproc
	pushl	%ebp
	.cfi_def_cfa_offset 8
	.cfi_offset 5, -8
	movl	%esp, %ebp
	.cfi_def_cfa_register 5
	subl	$24, %esp
	movl	$1, 4(%esp)
	movl	8(%ebp), %eax
	movl	%eax, (%esp)
	call	__Z11ShowMessageRKSsN11MessageType5TypesE
	movl	$1, (%esp)
	call	_exit
	.cfi_endproc
LFE1832:
	.globl	__Z8IsNumberRKSs
	.def	__Z8IsNumberRKSs;	.scl	2;	.type	32;	.endef
__Z8IsNumberRKSs:
LFB1833:
	.cfi_startproc
	pushl	%ebp
	.cfi_def_cfa_offset 8
	.cfi_offset 5, -8
	movl	%esp, %ebp
	.cfi_def_cfa_register 5
	pushl	%esi
	pushl	%ebx
	subl	$32, %esp
	movl	$_isdigit, (%esp)
	.cfi_offset 3, -16
	.cfi_offset 6, -12
	call	__ZSt7ptr_funIiiESt25pointer_to_unary_functionIT_T0_EPFS2_S1_E
	movl	%eax, %esi
	movl	8(%ebp), %eax
	movl	%eax, (%esp)
	call	__ZNKSs3endEv
	movl	%eax, %ebx
	movl	8(%ebp), %eax
	movl	%eax, (%esp)
	call	__ZNKSs5beginEv
	movl	%esi, 8(%esp)
	movl	%ebx, 4(%esp)
	movl	%eax, (%esp)
	call	__ZSt8count_ifIN9__gnu_cxx17__normal_iteratorIPKcSsEESt25pointer_to_unary_functionIiiEENSt15iterator_traitsIT_E15difference_typeES8_S8_T0_
	movl	%eax, -12(%ebp)
	movb	$46, -18(%ebp)
	leal	-18(%ebp), %eax
	movl	%eax, 4(%esp)
	leal	-17(%ebp), %eax
	movl	%eax, (%esp)
	call	__ZSt7bind1stISt8equal_toIcEcESt9binder1stIT_ERKS3_RKT0_
	movl	%eax, %ebx
	movl	8(%ebp), %eax
	movl	%eax, (%esp)
	call	__ZNKSs3endEv
	movl	%eax, %esi
	movl	8(%ebp), %eax
	movl	%eax, (%esp)
	call	__ZNKSs5beginEv
	movw	%bx, 8(%esp)
	movl	%esi, 4(%esp)
	movl	%eax, (%esp)
	call	__ZSt8count_ifIN9__gnu_cxx17__normal_iteratorIPKcSsEESt9binder1stISt8equal_toIcEEENSt15iterator_traitsIT_E15difference_typeESA_SA_T0_
	movl	%eax, -16(%ebp)
	cmpl	$0, -12(%ebp)
	je	L102
	cmpl	$0, -16(%ebp)
	je	L103
	cmpl	$1, -16(%ebp)
	jne	L102
L103:
	movl	$0, 4(%esp)
	movl	8(%ebp), %eax
	movl	%eax, (%esp)
	call	__ZNKSsixEj
	movb	(%eax), %al
	cmpb	$46, %al
	je	L102
	movl	8(%ebp), %eax
	movl	%eax, (%esp)
	call	__ZNKSs4sizeEv
	decl	%eax
	movl	%eax, 4(%esp)
	movl	8(%ebp), %eax
	movl	%eax, (%esp)
	call	__ZNKSsixEj
	movb	(%eax), %al
	cmpb	$46, %al
	je	L102
	movl	-16(%ebp), %eax
	movl	-12(%ebp), %edx
	addl	%edx, %eax
	movl	%eax, %ebx
	movl	8(%ebp), %eax
	movl	%eax, (%esp)
	call	__ZNKSs6lengthEv
	cmpl	%eax, %ebx
	jne	L102
	movb	$1, %al
	jmp	L104
L102:
	movb	$0, %al
L104:
	addl	$32, %esp
	popl	%ebx
	.cfi_restore 3
	popl	%esi
	.cfi_restore 6
	popl	%ebp
	.cfi_def_cfa 4, 4
	.cfi_restore 5
	ret
	.cfi_endproc
LFE1833:
	.globl	__Z8IsStringRKSs
	.def	__Z8IsStringRKSs;	.scl	2;	.type	32;	.endef
__Z8IsStringRKSs:
LFB1834:
	.cfi_startproc
	pushl	%ebp
	.cfi_def_cfa_offset 8
	.cfi_offset 5, -8
	movl	%esp, %ebp
	.cfi_def_cfa_register 5
	subl	$24, %esp
	movl	8(%ebp), %eax
	movl	%eax, (%esp)
	call	__ZNKSs4sizeEv
	cmpl	$1, %eax
	jbe	L106
	movl	$0, 4(%esp)
	movl	8(%ebp), %eax
	movl	%eax, (%esp)
	call	__ZNKSsixEj
	movb	(%eax), %al
	cmpb	$34, %al
	jne	L106
	movl	8(%ebp), %eax
	movl	%eax, (%esp)
	call	__ZNKSs4sizeEv
	decl	%eax
	movl	%eax, 4(%esp)
	movl	8(%ebp), %eax
	movl	%eax, (%esp)
	call	__ZNKSsixEj
	movb	(%eax), %al
	cmpb	$34, %al
	jne	L106
	movb	$1, %al
	jmp	L107
L106:
	movb	$0, %al
L107:
	leave
	.cfi_restore 5
	.cfi_def_cfa 4, 4
	ret
	.cfi_endproc
LFE1834:
	.globl	__Z12IsIdentifierRKSs
	.def	__Z12IsIdentifierRKSs;	.scl	2;	.type	32;	.endef
__Z12IsIdentifierRKSs:
LFB1835:
	.cfi_startproc
	pushl	%ebp
	.cfi_def_cfa_offset 8
	.cfi_offset 5, -8
	movl	%esp, %ebp
	.cfi_def_cfa_register 5
	pushl	%esi
	pushl	%ebx
	subl	$32, %esp
	movl	$_isdigit, (%esp)
	.cfi_offset 3, -16
	.cfi_offset 6, -12
	call	__ZSt7ptr_funIiiESt25pointer_to_unary_functionIT_T0_EPFS2_S1_E
	movl	%eax, %esi
	movl	8(%ebp), %eax
	movl	%eax, (%esp)
	call	__ZNKSs3endEv
	movl	%eax, %ebx
	movl	8(%ebp), %eax
	movl	%eax, (%esp)
	call	__ZNKSs5beginEv
	movl	%esi, 8(%esp)
	movl	%ebx, 4(%esp)
	movl	%eax, (%esp)
	call	__ZSt8count_ifIN9__gnu_cxx17__normal_iteratorIPKcSsEESt25pointer_to_unary_functionIiiEENSt15iterator_traitsIT_E15difference_typeES8_S8_T0_
	movl	%eax, -12(%ebp)
	movl	$_isalpha, (%esp)
	call	__ZSt7ptr_funIiiESt25pointer_to_unary_functionIT_T0_EPFS2_S1_E
	movl	%eax, %esi
	movl	8(%ebp), %eax
	movl	%eax, (%esp)
	call	__ZNKSs3endEv
	movl	%eax, %ebx
	movl	8(%ebp), %eax
	movl	%eax, (%esp)
	call	__ZNKSs5beginEv
	movl	%esi, 8(%esp)
	movl	%ebx, 4(%esp)
	movl	%eax, (%esp)
	call	__ZSt8count_ifIN9__gnu_cxx17__normal_iteratorIPKcSsEESt25pointer_to_unary_functionIiiEENSt15iterator_traitsIT_E15difference_typeES8_S8_T0_
	movl	%eax, -16(%ebp)
	movb	$95, -22(%ebp)
	leal	-22(%ebp), %eax
	movl	%eax, 4(%esp)
	leal	-21(%ebp), %eax
	movl	%eax, (%esp)
	call	__ZSt7bind1stISt8equal_toIcEcESt9binder1stIT_ERKS3_RKT0_
	movl	%eax, %ebx
	movl	8(%ebp), %eax
	movl	%eax, (%esp)
	call	__ZNKSs3endEv
	movl	%eax, %esi
	movl	8(%ebp), %eax
	movl	%eax, (%esp)
	call	__ZNKSs5beginEv
	movw	%bx, 8(%esp)
	movl	%esi, 4(%esp)
	movl	%eax, (%esp)
	call	__ZSt8count_ifIN9__gnu_cxx17__normal_iteratorIPKcSsEESt9binder1stISt8equal_toIcEEENSt15iterator_traitsIT_E15difference_typeESA_SA_T0_
	movl	%eax, -20(%ebp)
	cmpl	$0, -16(%ebp)
	jne	L109
	cmpl	$0, -20(%ebp)
	je	L110
L109:
	movl	$0, 4(%esp)
	movl	8(%ebp), %eax
	movl	%eax, (%esp)
	call	__ZNKSsixEj
	movb	(%eax), %al
	movsbl	%al, %eax
	subl	$48, %eax
	cmpl	$9, %eax
	jbe	L110
	movl	-16(%ebp), %eax
	movl	-12(%ebp), %edx
	addl	%edx, %eax
	addl	-20(%ebp), %eax
	movl	%eax, %ebx
	movl	8(%ebp), %eax
	movl	%eax, (%esp)
	call	__ZNKSs6lengthEv
	cmpl	%eax, %ebx
	jne	L110
	movb	$1, %al
	jmp	L111
L110:
	movb	$0, %al
L111:
	addl	$32, %esp
	popl	%ebx
	.cfi_restore 3
	popl	%esi
	.cfi_restore 6
	popl	%ebp
	.cfi_def_cfa 4, 4
	.cfi_restore 5
	ret
	.cfi_endproc
LFE1835:
	.section .rdata,"dr"
LC12:
	.ascii "!\0"
LC13:
	.ascii "*\0"
LC14:
	.ascii "/\0"
LC15:
	.ascii "+\0"
LC16:
	.ascii "-\0"
LC17:
	.ascii "$\0"
LC18:
	.ascii "<\0"
LC19:
	.ascii ">\0"
LC20:
	.ascii "=\0"
LC21:
	.ascii "&\0"
LC22:
	.ascii "|\0"
	.text
	.globl	__Z10IsOperatorRKSs
	.def	__Z10IsOperatorRKSs;	.scl	2;	.type	32;	.endef
__Z10IsOperatorRKSs:
LFB1836:
	.cfi_startproc
	pushl	%ebp
	.cfi_def_cfa_offset 8
	.cfi_offset 5, -8
	movl	%esp, %ebp
	.cfi_def_cfa_register 5
	subl	$24, %esp
	movl	$LC12, 4(%esp)
	movl	8(%ebp), %eax
	movl	%eax, (%esp)
	call	__ZSteqIcSt11char_traitsIcESaIcEEbRKSbIT_T0_T1_EPKS3_
	testb	%al, %al
	jne	L113
	movl	$LC13, 4(%esp)
	movl	8(%ebp), %eax
	movl	%eax, (%esp)
	call	__ZSteqIcSt11char_traitsIcESaIcEEbRKSbIT_T0_T1_EPKS3_
	testb	%al, %al
	jne	L113
	movl	$LC14, 4(%esp)
	movl	8(%ebp), %eax
	movl	%eax, (%esp)
	call	__ZSteqIcSt11char_traitsIcESaIcEEbRKSbIT_T0_T1_EPKS3_
	testb	%al, %al
	jne	L113
	movl	$LC15, 4(%esp)
	movl	8(%ebp), %eax
	movl	%eax, (%esp)
	call	__ZSteqIcSt11char_traitsIcESaIcEEbRKSbIT_T0_T1_EPKS3_
	testb	%al, %al
	jne	L113
	movl	$LC16, 4(%esp)
	movl	8(%ebp), %eax
	movl	%eax, (%esp)
	call	__ZSteqIcSt11char_traitsIcESaIcEEbRKSbIT_T0_T1_EPKS3_
	testb	%al, %al
	jne	L113
	movl	$LC17, 4(%esp)
	movl	8(%ebp), %eax
	movl	%eax, (%esp)
	call	__ZSteqIcSt11char_traitsIcESaIcEEbRKSbIT_T0_T1_EPKS3_
	testb	%al, %al
	jne	L113
	movl	$LC18, 4(%esp)
	movl	8(%ebp), %eax
	movl	%eax, (%esp)
	call	__ZSteqIcSt11char_traitsIcESaIcEEbRKSbIT_T0_T1_EPKS3_
	testb	%al, %al
	jne	L113
	movl	$LC19, 4(%esp)
	movl	8(%ebp), %eax
	movl	%eax, (%esp)
	call	__ZSteqIcSt11char_traitsIcESaIcEEbRKSbIT_T0_T1_EPKS3_
	testb	%al, %al
	jne	L113
	movl	$LC20, 4(%esp)
	movl	8(%ebp), %eax
	movl	%eax, (%esp)
	call	__ZSteqIcSt11char_traitsIcESaIcEEbRKSbIT_T0_T1_EPKS3_
	testb	%al, %al
	jne	L113
	movl	$LC21, 4(%esp)
	movl	8(%ebp), %eax
	movl	%eax, (%esp)
	call	__ZSteqIcSt11char_traitsIcESaIcEEbRKSbIT_T0_T1_EPKS3_
	testb	%al, %al
	jne	L113
	movl	$LC22, 4(%esp)
	movl	8(%ebp), %eax
	movl	%eax, (%esp)
	call	__ZSteqIcSt11char_traitsIcESaIcEEbRKSbIT_T0_T1_EPKS3_
	testb	%al, %al
	je	L114
L113:
	movb	$1, %al
	jmp	L115
L114:
	movb	$0, %al
L115:
	leave
	.cfi_restore 5
	.cfi_def_cfa 4, 4
	ret
	.cfi_endproc
LFE1836:
	.globl	__Z16GetAssociativityRKSs
	.def	__Z16GetAssociativityRKSs;	.scl	2;	.type	32;	.endef
__Z16GetAssociativityRKSs:
LFB1837:
	.cfi_startproc
	pushl	%ebp
	.cfi_def_cfa_offset 8
	.cfi_offset 5, -8
	movl	%esp, %ebp
	.cfi_def_cfa_register 5
	subl	$24, %esp
	movl	$LC12, 4(%esp)
	movl	8(%ebp), %eax
	movl	%eax, (%esp)
	call	__ZStneIcSt11char_traitsIcESaIcEEbRKSbIT_T0_T1_EPKS3_
	testb	%al, %al
	je	L117
	movl	$0, %eax
	jmp	L118
L117:
	movl	$1, %eax
L118:
	leave
	.cfi_restore 5
	.cfi_def_cfa 4, 4
	ret
	.cfi_endproc
LFE1837:
	.globl	__Z13GetPrecedenceRKSs
	.def	__Z13GetPrecedenceRKSs;	.scl	2;	.type	32;	.endef
__Z13GetPrecedenceRKSs:
LFB1838:
	.cfi_startproc
	pushl	%ebp
	.cfi_def_cfa_offset 8
	.cfi_offset 5, -8
	movl	%esp, %ebp
	.cfi_def_cfa_register 5
	subl	$24, %esp
	movl	$LC12, 4(%esp)
	movl	8(%ebp), %eax
	movl	%eax, (%esp)
	call	__ZSteqIcSt11char_traitsIcESaIcEEbRKSbIT_T0_T1_EPKS3_
	testb	%al, %al
	je	L120
	movl	$6, %eax
	jmp	L121
L120:
	movl	$LC13, 4(%esp)
	movl	8(%ebp), %eax
	movl	%eax, (%esp)
	call	__ZSteqIcSt11char_traitsIcESaIcEEbRKSbIT_T0_T1_EPKS3_
	testb	%al, %al
	jne	L122
	movl	$LC14, 4(%esp)
	movl	8(%ebp), %eax
	movl	%eax, (%esp)
	call	__ZSteqIcSt11char_traitsIcESaIcEEbRKSbIT_T0_T1_EPKS3_
	testb	%al, %al
	je	L123
L122:
	movb	$1, %al
	jmp	L124
L123:
	movb	$0, %al
L124:
	testb	%al, %al
	je	L125
	movl	$5, %eax
	jmp	L121
L125:
	movl	$LC15, 4(%esp)
	movl	8(%ebp), %eax
	movl	%eax, (%esp)
	call	__ZSteqIcSt11char_traitsIcESaIcEEbRKSbIT_T0_T1_EPKS3_
	testb	%al, %al
	jne	L126
	movl	$LC16, 4(%esp)
	movl	8(%ebp), %eax
	movl	%eax, (%esp)
	call	__ZSteqIcSt11char_traitsIcESaIcEEbRKSbIT_T0_T1_EPKS3_
	testb	%al, %al
	jne	L126
	movl	$LC17, 4(%esp)
	movl	8(%ebp), %eax
	movl	%eax, (%esp)
	call	__ZSteqIcSt11char_traitsIcESaIcEEbRKSbIT_T0_T1_EPKS3_
	testb	%al, %al
	je	L127
L126:
	movb	$1, %al
	jmp	L128
L127:
	movb	$0, %al
L128:
	testb	%al, %al
	je	L129
	movl	$4, %eax
	jmp	L121
L129:
	movl	$LC18, 4(%esp)
	movl	8(%ebp), %eax
	movl	%eax, (%esp)
	call	__ZSteqIcSt11char_traitsIcESaIcEEbRKSbIT_T0_T1_EPKS3_
	testb	%al, %al
	jne	L130
	movl	$LC19, 4(%esp)
	movl	8(%ebp), %eax
	movl	%eax, (%esp)
	call	__ZSteqIcSt11char_traitsIcESaIcEEbRKSbIT_T0_T1_EPKS3_
	testb	%al, %al
	je	L131
L130:
	movb	$1, %al
	jmp	L132
L131:
	movb	$0, %al
L132:
	testb	%al, %al
	je	L133
	movl	$3, %eax
	jmp	L121
L133:
	movl	$LC20, 4(%esp)
	movl	8(%ebp), %eax
	movl	%eax, (%esp)
	call	__ZSteqIcSt11char_traitsIcESaIcEEbRKSbIT_T0_T1_EPKS3_
	testb	%al, %al
	je	L134
	movl	$2, %eax
	jmp	L121
L134:
	movl	$LC21, 4(%esp)
	movl	8(%ebp), %eax
	movl	%eax, (%esp)
	call	__ZSteqIcSt11char_traitsIcESaIcEEbRKSbIT_T0_T1_EPKS3_
	testb	%al, %al
	je	L135
	movl	$1, %eax
	jmp	L121
L135:
	movl	$0, %eax
L121:
	leave
	.cfi_restore 5
	.cfi_def_cfa 4, 4
	ret
	.cfi_endproc
LFE1838:
	.section .rdata,"dr"
	.align 4
LC23:
	.ascii "Invalid number of arguments. Expected one argument.\0"
LC24:
	.ascii "-v\0"
LC25:
	.ascii "--version\0"
	.align 4
LC26:
	.ascii "Nicole Compiler, compiler for the programming language Nicole, version 0.1.0.\12(c) 2013 thewizardplusplus, http://thewizardplusplus.ru.\0"
LC27:
	.ascii "-h\0"
LC28:
	.ascii "--help\0"
	.align 4
LC29:
	.ascii "Usage:\12\11nicole_compiler (option|filename)\12\12Option:\12\11-v, --version - display compiler version;\12\11-h, --help -    display this information.\0"
	.text
	.globl	__Z27ProcessCommandLineArgumentsiPPc
	.def	__Z27ProcessCommandLineArgumentsiPPc;	.scl	2;	.type	32;	.endef
__Z27ProcessCommandLineArgumentsiPPc:
LFB1839:
	.cfi_startproc
	.cfi_personality 0,___gxx_personality_v0
	.cfi_lsda 0,LLSDA1839
	pushl	%ebp
	.cfi_def_cfa_offset 8
	.cfi_offset 5, -8
	movl	%esp, %ebp
	.cfi_def_cfa_register 5
	pushl	%ebx
	subl	$52, %esp
	cmpl	$2, 12(%ebp)
	je	L137
	.cfi_offset 3, -12
	leal	-26(%ebp), %eax
	movl	%eax, (%esp)
	call	__ZNSaIcEC1Ev
	leal	-26(%ebp), %eax
	movl	%eax, 8(%esp)
	movl	$LC23, 4(%esp)
	leal	-32(%ebp), %eax
	movl	%eax, (%esp)
LEHB65:
	call	__ZNSsC1EPKcRKSaIcE
LEHE65:
	leal	-32(%ebp), %eax
	movl	%eax, (%esp)
LEHB66:
	call	__Z12ProcessErrorRKSs
LEHE66:
	leal	-32(%ebp), %eax
	movl	%eax, (%esp)
LEHB67:
	call	__ZNSsD1Ev
LEHE67:
	leal	-26(%ebp), %eax
	movl	%eax, (%esp)
	call	__ZNSaIcED1Ev
	movl	8(%ebp), %eax
	movl	%eax, (%esp)
LEHB68:
	call	__ZNSsC1Ev
LEHE68:
	jmp	L136
L137:
	leal	-25(%ebp), %eax
	movl	%eax, (%esp)
	call	__ZNSaIcEC1Ev
	movl	16(%ebp), %eax
	addl	$4, %eax
	movl	(%eax), %eax
	leal	-25(%ebp), %edx
	movl	%edx, 8(%esp)
	movl	%eax, 4(%esp)
	leal	-36(%ebp), %eax
	movl	%eax, (%esp)
LEHB69:
	call	__ZNSsC1EPKcRKSaIcE
LEHE69:
	leal	-25(%ebp), %eax
	movl	%eax, (%esp)
	call	__ZNSaIcED1Ev
	movl	$LC24, 4(%esp)
	leal	-36(%ebp), %eax
	movl	%eax, (%esp)
LEHB70:
	call	__ZSteqIcSt11char_traitsIcESaIcEEbRKSbIT_T0_T1_EPKS3_
	testb	%al, %al
	jne	L139
	movl	$LC25, 4(%esp)
	leal	-36(%ebp), %eax
	movl	%eax, (%esp)
	call	__ZSteqIcSt11char_traitsIcESaIcEEbRKSbIT_T0_T1_EPKS3_
LEHE70:
	testb	%al, %al
	je	L140
L139:
	movb	$1, %al
	jmp	L141
L140:
	movb	$0, %al
L141:
	testb	%al, %al
	je	L142
	leal	-17(%ebp), %eax
	movl	%eax, (%esp)
	call	__ZNSaIcEC1Ev
	leal	-17(%ebp), %eax
	movl	%eax, 8(%esp)
	movl	$LC26, 4(%esp)
	leal	-24(%ebp), %eax
	movl	%eax, (%esp)
LEHB71:
	call	__ZNSsC1EPKcRKSaIcE
LEHE71:
	movl	$0, 4(%esp)
	leal	-24(%ebp), %eax
	movl	%eax, (%esp)
LEHB72:
	call	__Z11ShowMessageRKSsN11MessageType5TypesE
LEHE72:
	leal	-24(%ebp), %eax
	movl	%eax, (%esp)
LEHB73:
	call	__ZNSsD1Ev
LEHE73:
	leal	-17(%ebp), %eax
	movl	%eax, (%esp)
	call	__ZNSaIcED1Ev
	movl	$0, (%esp)
	call	_exit
L142:
	movl	$LC27, 4(%esp)
	leal	-36(%ebp), %eax
	movl	%eax, (%esp)
LEHB74:
	call	__ZSteqIcSt11char_traitsIcESaIcEEbRKSbIT_T0_T1_EPKS3_
	testb	%al, %al
	jne	L143
	movl	$LC28, 4(%esp)
	leal	-36(%ebp), %eax
	movl	%eax, (%esp)
	call	__ZSteqIcSt11char_traitsIcESaIcEEbRKSbIT_T0_T1_EPKS3_
LEHE74:
	testb	%al, %al
	je	L144
L143:
	movb	$1, %al
	jmp	L145
L144:
	movb	$0, %al
L145:
	testb	%al, %al
	je	L146
	leal	-9(%ebp), %eax
	movl	%eax, (%esp)
	call	__ZNSaIcEC1Ev
	leal	-9(%ebp), %eax
	movl	%eax, 8(%esp)
	movl	$LC29, 4(%esp)
	leal	-16(%ebp), %eax
	movl	%eax, (%esp)
LEHB75:
	call	__ZNSsC1EPKcRKSaIcE
LEHE75:
	movl	$0, 4(%esp)
	leal	-16(%ebp), %eax
	movl	%eax, (%esp)
LEHB76:
	call	__Z11ShowMessageRKSsN11MessageType5TypesE
LEHE76:
	leal	-16(%ebp), %eax
	movl	%eax, (%esp)
LEHB77:
	call	__ZNSsD1Ev
LEHE77:
	leal	-9(%ebp), %eax
	movl	%eax, (%esp)
	call	__ZNSaIcED1Ev
	movl	$0, (%esp)
	call	_exit
L146:
	leal	-36(%ebp), %eax
	movl	%eax, 4(%esp)
	movl	8(%ebp), %eax
	movl	%eax, (%esp)
LEHB78:
	call	__ZNSsC1ERKSs
LEHE78:
	leal	-36(%ebp), %eax
	movl	%eax, (%esp)
LEHB79:
	call	__ZNSsD1Ev
LEHE79:
	jmp	L136
L156:
	movl	%eax, %ebx
	leal	-32(%ebp), %eax
	movl	%eax, (%esp)
	call	__ZNSsD1Ev
	jmp	L148
L155:
	movl	%eax, %ebx
L148:
	leal	-26(%ebp), %eax
	movl	%eax, (%esp)
	call	__ZNSaIcED1Ev
	movl	%ebx, %eax
	movl	%eax, (%esp)
LEHB80:
	call	__Unwind_Resume
L157:
	movl	%eax, %ebx
	leal	-25(%ebp), %eax
	movl	%eax, (%esp)
	call	__ZNSaIcED1Ev
	movl	%ebx, %eax
	movl	%eax, (%esp)
	call	__Unwind_Resume
LEHE80:
L160:
	movl	%eax, %ebx
	leal	-24(%ebp), %eax
	movl	%eax, (%esp)
	call	__ZNSsD1Ev
	jmp	L151
L159:
	movl	%eax, %ebx
L151:
	leal	-17(%ebp), %eax
	movl	%eax, (%esp)
	call	__ZNSaIcED1Ev
	jmp	L152
L162:
	movl	%eax, %ebx
	leal	-16(%ebp), %eax
	movl	%eax, (%esp)
	call	__ZNSsD1Ev
	jmp	L154
L161:
	movl	%eax, %ebx
L154:
	leal	-9(%ebp), %eax
	movl	%eax, (%esp)
	call	__ZNSaIcED1Ev
	jmp	L152
L158:
	movl	%eax, %ebx
L152:
	leal	-36(%ebp), %eax
	movl	%eax, (%esp)
	call	__ZNSsD1Ev
	movl	%ebx, %eax
	movl	%eax, (%esp)
LEHB81:
	call	__Unwind_Resume
LEHE81:
L136:
	movl	8(%ebp), %eax
	addl	$52, %esp
	popl	%ebx
	.cfi_restore 3
	popl	%ebp
	.cfi_def_cfa 4, 4
	.cfi_restore 5
	ret	$4
	.cfi_endproc
LFE1839:
	.section	.gcc_except_table,"w"
LLSDA1839:
	.byte	0xff
	.byte	0xff
	.byte	0x1
	.uleb128 LLSDACSE1839-LLSDACSB1839
LLSDACSB1839:
	.uleb128 LEHB65-LFB1839
	.uleb128 LEHE65-LEHB65
	.uleb128 L155-LFB1839
	.uleb128 0
	.uleb128 LEHB66-LFB1839
	.uleb128 LEHE66-LEHB66
	.uleb128 L156-LFB1839
	.uleb128 0
	.uleb128 LEHB67-LFB1839
	.uleb128 LEHE67-LEHB67
	.uleb128 L155-LFB1839
	.uleb128 0
	.uleb128 LEHB68-LFB1839
	.uleb128 LEHE68-LEHB68
	.uleb128 0
	.uleb128 0
	.uleb128 LEHB69-LFB1839
	.uleb128 LEHE69-LEHB69
	.uleb128 L157-LFB1839
	.uleb128 0
	.uleb128 LEHB70-LFB1839
	.uleb128 LEHE70-LEHB70
	.uleb128 L158-LFB1839
	.uleb128 0
	.uleb128 LEHB71-LFB1839
	.uleb128 LEHE71-LEHB71
	.uleb128 L159-LFB1839
	.uleb128 0
	.uleb128 LEHB72-LFB1839
	.uleb128 LEHE72-LEHB72
	.uleb128 L160-LFB1839
	.uleb128 0
	.uleb128 LEHB73-LFB1839
	.uleb128 LEHE73-LEHB73
	.uleb128 L159-LFB1839
	.uleb128 0
	.uleb128 LEHB74-LFB1839
	.uleb128 LEHE74-LEHB74
	.uleb128 L158-LFB1839
	.uleb128 0
	.uleb128 LEHB75-LFB1839
	.uleb128 LEHE75-LEHB75
	.uleb128 L161-LFB1839
	.uleb128 0
	.uleb128 LEHB76-LFB1839
	.uleb128 LEHE76-LEHB76
	.uleb128 L162-LFB1839
	.uleb128 0
	.uleb128 LEHB77-LFB1839
	.uleb128 LEHE77-LEHB77
	.uleb128 L161-LFB1839
	.uleb128 0
	.uleb128 LEHB78-LFB1839
	.uleb128 LEHE78-LEHB78
	.uleb128 L158-LFB1839
	.uleb128 0
	.uleb128 LEHB79-LFB1839
	.uleb128 LEHE79-LEHB79
	.uleb128 0
	.uleb128 0
	.uleb128 LEHB80-LFB1839
	.uleb128 LEHE80-LEHB80
	.uleb128 0
	.uleb128 0
	.uleb128 LEHB81-LFB1839
	.uleb128 LEHE81-LEHB81
	.uleb128 0
	.uleb128 0
LLSDACSE1839:
	.text
	.section	.text$_ZNSt3mapIjSsSt4lessIjESaISt4pairIKjSsEEED1Ev,"x"
	.linkonce discard
	.align 2
	.globl	__ZNSt3mapIjSsSt4lessIjESaISt4pairIKjSsEEED1Ev
	.def	__ZNSt3mapIjSsSt4lessIjESaISt4pairIKjSsEEED1Ev;	.scl	2;	.type	32;	.endef
__ZNSt3mapIjSsSt4lessIjESaISt4pairIKjSsEEED1Ev:
LFB1843:
	.cfi_startproc
	pushl	%ebp
	.cfi_def_cfa_offset 8
	.cfi_offset 5, -8
	movl	%esp, %ebp
	.cfi_def_cfa_register 5
	subl	$24, %esp
	movl	8(%ebp), %eax
	movl	%eax, (%esp)
	call	__ZNSt8_Rb_treeIjSt4pairIKjSsESt10_Select1stIS2_ESt4lessIjESaIS2_EED1Ev
	leave
	.cfi_restore 5
	.cfi_def_cfa 4, 4
	ret
	.cfi_endproc
LFE1843:
	.section .rdata,"dr"
LC30:
	.ascii "Unable to open source file \"\0"
LC31:
	.ascii "\".\0"
	.text
	.globl	__Z8FileReadRKSs
	.def	__Z8FileReadRKSs;	.scl	2;	.type	32;	.endef
__Z8FileReadRKSs:
LFB1840:
	.cfi_startproc
	.cfi_personality 0,___gxx_personality_v0
	.cfi_lsda 0,LLSDA1840
	pushl	%ebp
	.cfi_def_cfa_offset 8
	.cfi_offset 5, -8
	movl	%esp, %ebp
	.cfi_def_cfa_register 5
	pushl	%ebx
	subl	$292, %esp
	movl	12(%ebp), %eax
	movl	%eax, (%esp)
LEHB82:
	.cfi_offset 3, -12
	call	__ZNKSs5c_strEv
	movl	$8, 8(%esp)
	movl	%eax, 4(%esp)
	leal	-276(%ebp), %eax
	movl	%eax, (%esp)
	call	__ZNSt14basic_ifstreamIcSt11char_traitsIcEEC1EPKcSt13_Ios_Openmode
LEHE82:
	leal	-276(%ebp), %eax
	movl	%eax, (%esp)
	call	__ZNSt14basic_ifstreamIcSt11char_traitsIcEE7is_openEv
	xorl	$1, %eax
	testb	%al, %al
	je	L166
	leal	-12(%ebp), %eax
	movl	12(%ebp), %edx
	movl	%edx, 8(%esp)
	movl	$LC30, 4(%esp)
	movl	%eax, (%esp)
LEHB83:
	call	__ZStplIcSt11char_traitsIcESaIcEESbIT_T0_T1_EPKS3_RKS6_
LEHE83:
	subl	$4, %esp
	leal	-16(%ebp), %eax
	movl	$LC31, 8(%esp)
	leal	-12(%ebp), %edx
	movl	%edx, 4(%esp)
	movl	%eax, (%esp)
LEHB84:
	call	__ZStplIcSt11char_traitsIcESaIcEESbIT_T0_T1_ERKS6_PKS3_
LEHE84:
	subl	$4, %esp
	leal	-16(%ebp), %eax
	movl	%eax, (%esp)
LEHB85:
	call	__Z12ProcessErrorRKSs
LEHE85:
	leal	-16(%ebp), %eax
	movl	%eax, (%esp)
LEHB86:
	call	__ZNSsD1Ev
LEHE86:
	leal	-12(%ebp), %eax
	movl	%eax, (%esp)
LEHB87:
	call	__ZNSsD1Ev
L166:
	movl	8(%ebp), %eax
	movl	%eax, (%esp)
	call	__ZNSt3mapIjSsSt4lessIjESaISt4pairIKjSsEEEC1Ev
LEHE87:
	movl	$0, -20(%ebp)
	leal	-24(%ebp), %eax
	movl	%eax, (%esp)
LEHB88:
	call	__ZNSsC1Ev
LEHE88:
	jmp	L167
L168:
	leal	-24(%ebp), %eax
	movl	%eax, 4(%esp)
	leal	-276(%ebp), %eax
	movl	%eax, (%esp)
LEHB89:
	call	__ZSt7getlineIcSt11char_traitsIcESaIcEERSt13basic_istreamIT_T0_ES7_RSbIS4_S5_T1_E
	leal	-20(%ebp), %eax
	movl	%eax, 4(%esp)
	movl	8(%ebp), %eax
	movl	%eax, (%esp)
	call	__ZNSt3mapIjSsSt4lessIjESaISt4pairIKjSsEEEixERS3_
	leal	-24(%ebp), %edx
	movl	%edx, 4(%esp)
	movl	%eax, (%esp)
	call	__ZNSsaSERKSs
	movl	-20(%ebp), %eax
	incl	%eax
	movl	%eax, -20(%ebp)
L167:
	leal	-276(%ebp), %eax
	addl	$116, %eax
	movl	%eax, (%esp)
	call	__ZNKSt9basic_iosIcSt11char_traitsIcEE4goodEv
LEHE89:
	testb	%al, %al
	jne	L168
	leal	-24(%ebp), %eax
	movl	%eax, (%esp)
LEHB90:
	call	__ZNSsD1Ev
LEHE90:
	leal	-276(%ebp), %eax
	movl	%eax, (%esp)
LEHB91:
	call	__ZNSt14basic_ifstreamIcSt11char_traitsIcEED1Ev
LEHE91:
	movl	8(%ebp), %eax
	movl	-4(%ebp), %ebx
	leave
	.cfi_remember_state
	.cfi_restore 5
	.cfi_def_cfa 4, 4
	.cfi_restore 3
	ret	$4
L176:
	.cfi_restore_state
	movl	%eax, %ebx
	leal	-16(%ebp), %eax
	movl	%eax, (%esp)
	call	__ZNSsD1Ev
	jmp	L170
L175:
	movl	%eax, %ebx
L170:
	leal	-12(%ebp), %eax
	movl	%eax, (%esp)
	call	__ZNSsD1Ev
	jmp	L171
L178:
	movl	%eax, %ebx
	leal	-24(%ebp), %eax
	movl	%eax, (%esp)
	call	__ZNSsD1Ev
	jmp	L173
L177:
	movl	%eax, %ebx
L173:
	movl	8(%ebp), %eax
	movl	%eax, (%esp)
	call	__ZNSt3mapIjSsSt4lessIjESaISt4pairIKjSsEEED1Ev
	jmp	L171
L174:
	movl	%eax, %ebx
L171:
	leal	-276(%ebp), %eax
	movl	%eax, (%esp)
	call	__ZNSt14basic_ifstreamIcSt11char_traitsIcEED1Ev
	movl	%ebx, %eax
	movl	%eax, (%esp)
LEHB92:
	call	__Unwind_Resume
LEHE92:
	.cfi_endproc
LFE1840:
	.section	.gcc_except_table,"w"
LLSDA1840:
	.byte	0xff
	.byte	0xff
	.byte	0x1
	.uleb128 LLSDACSE1840-LLSDACSB1840
LLSDACSB1840:
	.uleb128 LEHB82-LFB1840
	.uleb128 LEHE82-LEHB82
	.uleb128 0
	.uleb128 0
	.uleb128 LEHB83-LFB1840
	.uleb128 LEHE83-LEHB83
	.uleb128 L174-LFB1840
	.uleb128 0
	.uleb128 LEHB84-LFB1840
	.uleb128 LEHE84-LEHB84
	.uleb128 L175-LFB1840
	.uleb128 0
	.uleb128 LEHB85-LFB1840
	.uleb128 LEHE85-LEHB85
	.uleb128 L176-LFB1840
	.uleb128 0
	.uleb128 LEHB86-LFB1840
	.uleb128 LEHE86-LEHB86
	.uleb128 L175-LFB1840
	.uleb128 0
	.uleb128 LEHB87-LFB1840
	.uleb128 LEHE87-LEHB87
	.uleb128 L174-LFB1840
	.uleb128 0
	.uleb128 LEHB88-LFB1840
	.uleb128 LEHE88-LEHB88
	.uleb128 L177-LFB1840
	.uleb128 0
	.uleb128 LEHB89-LFB1840
	.uleb128 LEHE89-LEHB89
	.uleb128 L178-LFB1840
	.uleb128 0
	.uleb128 LEHB90-LFB1840
	.uleb128 LEHE90-LEHB90
	.uleb128 L177-LFB1840
	.uleb128 0
	.uleb128 LEHB91-LFB1840
	.uleb128 LEHE91-LEHB91
	.uleb128 0
	.uleb128 0
	.uleb128 LEHB92-LFB1840
	.uleb128 LEHE92-LEHB92
	.uleb128 0
	.uleb128 0
LLSDACSE1840:
	.text
	.section .rdata,"dr"
LC32:
	.ascii "Unable to open target file \"\0"
	.text
	.globl	__Z9FileWriteRKSsS0_
	.def	__Z9FileWriteRKSsS0_;	.scl	2;	.type	32;	.endef
__Z9FileWriteRKSsS0_:
LFB1844:
	.cfi_startproc
	.cfi_personality 0,___gxx_personality_v0
	.cfi_lsda 0,LLSDA1844
	pushl	%ebp
	.cfi_def_cfa_offset 8
	.cfi_offset 5, -8
	movl	%esp, %ebp
	.cfi_def_cfa_register 5
	pushl	%ebx
	subl	$276, %esp
	movl	$32, 4(%esp)
	movl	$16, (%esp)
	.cfi_offset 3, -12
	call	__ZStorSt13_Ios_OpenmodeS_
	movl	%eax, %ebx
	movl	8(%ebp), %eax
	movl	%eax, (%esp)
LEHB93:
	call	__ZNKSs5c_strEv
	movl	%ebx, 8(%esp)
	movl	%eax, 4(%esp)
	leal	-264(%ebp), %eax
	movl	%eax, (%esp)
	call	__ZNSt14basic_ofstreamIcSt11char_traitsIcEEC1EPKcSt13_Ios_Openmode
LEHE93:
	leal	-264(%ebp), %eax
	movl	%eax, (%esp)
	call	__ZNSt14basic_ofstreamIcSt11char_traitsIcEE7is_openEv
	xorl	$1, %eax
	testb	%al, %al
	je	L180
	leal	-12(%ebp), %eax
	movl	8(%ebp), %edx
	movl	%edx, 8(%esp)
	movl	$LC32, 4(%esp)
	movl	%eax, (%esp)
LEHB94:
	call	__ZStplIcSt11char_traitsIcESaIcEESbIT_T0_T1_EPKS3_RKS6_
LEHE94:
	subl	$4, %esp
	leal	-16(%ebp), %eax
	movl	$LC31, 8(%esp)
	leal	-12(%ebp), %edx
	movl	%edx, 4(%esp)
	movl	%eax, (%esp)
LEHB95:
	call	__ZStplIcSt11char_traitsIcESaIcEESbIT_T0_T1_ERKS6_PKS3_
LEHE95:
	subl	$4, %esp
	leal	-16(%ebp), %eax
	movl	%eax, (%esp)
LEHB96:
	call	__Z12ProcessErrorRKSs
LEHE96:
	leal	-16(%ebp), %eax
	movl	%eax, (%esp)
LEHB97:
	call	__ZNSsD1Ev
LEHE97:
	leal	-12(%ebp), %eax
	movl	%eax, (%esp)
LEHB98:
	call	__ZNSsD1Ev
L180:
	movl	12(%ebp), %eax
	movl	%eax, 4(%esp)
	leal	-264(%ebp), %eax
	movl	%eax, (%esp)
	call	__ZStlsIcSt11char_traitsIcESaIcEERSt13basic_ostreamIT_T0_ES7_RKSbIS4_S5_T1_E
LEHE98:
	leal	-264(%ebp), %eax
	movl	%eax, (%esp)
LEHB99:
	call	__ZNSt14basic_ofstreamIcSt11char_traitsIcEED1Ev
LEHE99:
	movl	-4(%ebp), %ebx
	leave
	.cfi_remember_state
	.cfi_restore 5
	.cfi_def_cfa 4, 4
	.cfi_restore 3
	ret
L186:
	.cfi_restore_state
	movl	%eax, %ebx
	leal	-16(%ebp), %eax
	movl	%eax, (%esp)
	call	__ZNSsD1Ev
	jmp	L182
L185:
	movl	%eax, %ebx
L182:
	leal	-12(%ebp), %eax
	movl	%eax, (%esp)
	call	__ZNSsD1Ev
	jmp	L183
L184:
	movl	%eax, %ebx
L183:
	leal	-264(%ebp), %eax
	movl	%eax, (%esp)
	call	__ZNSt14basic_ofstreamIcSt11char_traitsIcEED1Ev
	movl	%ebx, %eax
	movl	%eax, (%esp)
LEHB100:
	call	__Unwind_Resume
LEHE100:
	.cfi_endproc
LFE1844:
	.section	.gcc_except_table,"w"
LLSDA1844:
	.byte	0xff
	.byte	0xff
	.byte	0x1
	.uleb128 LLSDACSE1844-LLSDACSB1844
LLSDACSB1844:
	.uleb128 LEHB93-LFB1844
	.uleb128 LEHE93-LEHB93
	.uleb128 0
	.uleb128 0
	.uleb128 LEHB94-LFB1844
	.uleb128 LEHE94-LEHB94
	.uleb128 L184-LFB1844
	.uleb128 0
	.uleb128 LEHB95-LFB1844
	.uleb128 LEHE95-LEHB95
	.uleb128 L185-LFB1844
	.uleb128 0
	.uleb128 LEHB96-LFB1844
	.uleb128 LEHE96-LEHB96
	.uleb128 L186-LFB1844
	.uleb128 0
	.uleb128 LEHB97-LFB1844
	.uleb128 LEHE97-LEHB97
	.uleb128 L185-LFB1844
	.uleb128 0
	.uleb128 LEHB98-LFB1844
	.uleb128 LEHE98-LEHB98
	.uleb128 L184-LFB1844
	.uleb128 0
	.uleb128 LEHB99-LFB1844
	.uleb128 LEHE99-LEHB99
	.uleb128 0
	.uleb128 0
	.uleb128 LEHB100-LFB1844
	.uleb128 LEHE100-LEHB100
	.uleb128 0
	.uleb128 0
LLSDACSE1844:
	.text
	.section .rdata,"dr"
LC33:
	.ascii "note \0"
LC34:
	.ascii "note\0"
	.text
	.globl	__Z10PreprocessRKSt3mapIjSsSt4lessIjESaISt4pairIKjSsEEE
	.def	__Z10PreprocessRKSt3mapIjSsSt4lessIjESaISt4pairIKjSsEEE;	.scl	2;	.type	32;	.endef
__Z10PreprocessRKSt3mapIjSsSt4lessIjESaISt4pairIKjSsEEE:
LFB1845:
	.cfi_startproc
	.cfi_personality 0,___gxx_personality_v0
	.cfi_lsda 0,LLSDA1845
	pushl	%ebp
	.cfi_def_cfa_offset 8
	.cfi_offset 5, -8
	movl	%esp, %ebp
	.cfi_def_cfa_register 5
	pushl	%esi
	pushl	%ebx
	subl	$32, %esp
	movl	8(%ebp), %eax
	movl	%eax, (%esp)
LEHB101:
	.cfi_offset 3, -16
	.cfi_offset 6, -12
	call	__ZNSt3mapIjSsSt4lessIjESaISt4pairIKjSsEEEC1Ev
LEHE101:
	movl	12(%ebp), %eax
	movl	%eax, (%esp)
LEHB102:
	call	__ZNKSt3mapIjSsSt4lessIjESaISt4pairIKjSsEEE5beginEv
	movl	%eax, -20(%ebp)
	jmp	L188
L196:
	leal	-20(%ebp), %eax
	movl	%eax, (%esp)
	call	__ZNKSt23_Rb_tree_const_iteratorISt4pairIKjSsEEptEv
	leal	4(%eax), %edx
	leal	-24(%ebp), %eax
	movl	%edx, 4(%esp)
	movl	%eax, (%esp)
	call	__Z10StringTrimRKSs
LEHE102:
	subl	$4, %esp
	leal	-24(%ebp), %eax
	movl	%eax, (%esp)
LEHB103:
	call	__ZNKSs5emptyEv
LEHE103:
	testb	%al, %al
	jne	L190
L189:
	movb	$0, %bl
	leal	-12(%ebp), %eax
	movl	$5, 12(%esp)
	movl	$0, 8(%esp)
	leal	-24(%ebp), %edx
	movl	%edx, 4(%esp)
	movl	%eax, (%esp)
LEHB104:
	call	__ZNKSs6substrEjj
	subl	$4, %esp
	movb	$1, %bl
	movl	$LC33, 4(%esp)
	leal	-12(%ebp), %eax
	movl	%eax, (%esp)
	call	__ZSteqIcSt11char_traitsIcESaIcEEbRKSbIT_T0_T1_EPKS3_
	testb	%al, %al
	jne	L191
	movl	$LC34, 4(%esp)
	leal	-24(%ebp), %eax
	movl	%eax, (%esp)
	call	__ZSteqIcSt11char_traitsIcESaIcEEbRKSbIT_T0_T1_EPKS3_
LEHE104:
	testb	%al, %al
	je	L192
L191:
	movb	$1, %al
	jmp	L193
L192:
	movb	$0, %al
L193:
	movl	%eax, %esi
	testb	%bl, %bl
	je	L194
	leal	-12(%ebp), %eax
	movl	%eax, (%esp)
LEHB105:
	call	__ZNSsD1Ev
L194:
	movl	%esi, %eax
	testb	%al, %al
	jne	L190
L195:
	leal	-20(%ebp), %eax
	movl	%eax, (%esp)
	call	__ZNKSt23_Rb_tree_const_iteratorISt4pairIKjSsEEptEv
	movl	%eax, 4(%esp)
	movl	8(%ebp), %eax
	movl	%eax, (%esp)
	call	__ZNSt3mapIjSsSt4lessIjESaISt4pairIKjSsEEEixERS3_
	leal	-24(%ebp), %edx
	movl	%edx, 4(%esp)
	movl	%eax, (%esp)
	call	__ZNSsaSERKSs
LEHE105:
L190:
	leal	-24(%ebp), %eax
	movl	%eax, (%esp)
LEHB106:
	call	__ZNSsD1Ev
	leal	-20(%ebp), %eax
	movl	%eax, (%esp)
	call	__ZNSt23_Rb_tree_const_iteratorISt4pairIKjSsEEppEv
L188:
	movl	12(%ebp), %eax
	movl	%eax, (%esp)
	call	__ZNKSt3mapIjSsSt4lessIjESaISt4pairIKjSsEEE3endEv
LEHE106:
	movl	%eax, -16(%ebp)
	leal	-16(%ebp), %eax
	movl	%eax, 4(%esp)
	leal	-20(%ebp), %eax
	movl	%eax, (%esp)
	call	__ZNKSt23_Rb_tree_const_iteratorISt4pairIKjSsEEneERKS3_
	testb	%al, %al
	jne	L196
	jmp	L204
L203:
	movl	%eax, %esi
	testb	%bl, %bl
	je	L198
	leal	-12(%ebp), %eax
	movl	%eax, (%esp)
	call	__ZNSsD1Ev
L198:
	movl	%esi, %ebx
	jmp	L199
L202:
	movl	%eax, %ebx
L199:
	leal	-24(%ebp), %eax
	movl	%eax, (%esp)
	call	__ZNSsD1Ev
	jmp	L200
L201:
	movl	%eax, %ebx
L200:
	movl	8(%ebp), %eax
	movl	%eax, (%esp)
	call	__ZNSt3mapIjSsSt4lessIjESaISt4pairIKjSsEEED1Ev
	movl	%ebx, %eax
	movl	%eax, (%esp)
LEHB107:
	call	__Unwind_Resume
LEHE107:
L204:
	movl	8(%ebp), %eax
	leal	-8(%ebp), %esp
	popl	%ebx
	.cfi_restore 3
	popl	%esi
	.cfi_restore 6
	popl	%ebp
	.cfi_def_cfa 4, 4
	.cfi_restore 5
	ret	$4
	.cfi_endproc
LFE1845:
	.section	.gcc_except_table,"w"
LLSDA1845:
	.byte	0xff
	.byte	0xff
	.byte	0x1
	.uleb128 LLSDACSE1845-LLSDACSB1845
LLSDACSB1845:
	.uleb128 LEHB101-LFB1845
	.uleb128 LEHE101-LEHB101
	.uleb128 0
	.uleb128 0
	.uleb128 LEHB102-LFB1845
	.uleb128 LEHE102-LEHB102
	.uleb128 L201-LFB1845
	.uleb128 0
	.uleb128 LEHB103-LFB1845
	.uleb128 LEHE103-LEHB103
	.uleb128 L202-LFB1845
	.uleb128 0
	.uleb128 LEHB104-LFB1845
	.uleb128 LEHE104-LEHB104
	.uleb128 L203-LFB1845
	.uleb128 0
	.uleb128 LEHB105-LFB1845
	.uleb128 LEHE105-LEHB105
	.uleb128 L202-LFB1845
	.uleb128 0
	.uleb128 LEHB106-LFB1845
	.uleb128 LEHE106-LEHB106
	.uleb128 L201-LFB1845
	.uleb128 0
	.uleb128 LEHB107-LFB1845
	.uleb128 LEHE107-LEHB107
	.uleb128 0
	.uleb128 0
LLSDACSE1845:
	.text
	.section	.text$_ZNSt4listISsSaISsEED1Ev,"x"
	.linkonce discard
	.align 2
	.globl	__ZNSt4listISsSaISsEED1Ev
	.def	__ZNSt4listISsSaISsEED1Ev;	.scl	2;	.type	32;	.endef
__ZNSt4listISsSaISsEED1Ev:
LFB1849:
	.cfi_startproc
	pushl	%ebp
	.cfi_def_cfa_offset 8
	.cfi_offset 5, -8
	movl	%esp, %ebp
	.cfi_def_cfa_register 5
	subl	$24, %esp
	movl	8(%ebp), %eax
	movl	%eax, (%esp)
	call	__ZNSt10_List_baseISsSaISsEED2Ev
	leave
	.cfi_restore 5
	.cfi_def_cfa 4, 4
	ret
	.cfi_endproc
LFE1849:
	.section .rdata,"dr"
LC35:
	.ascii "Unfinished number on line \0"
LC36:
	.ascii ".\0"
LC37:
	.ascii "Unexpected symbol \"\0"
LC38:
	.ascii "\" in expression on line \0"
	.text
	.globl	__Z8TokenizeRKSsj
	.def	__Z8TokenizeRKSsj;	.scl	2;	.type	32;	.endef
__Z8TokenizeRKSsj:
LFB1846:
	.cfi_startproc
	.cfi_personality 0,___gxx_personality_v0
	.cfi_lsda 0,LLSDA1846
	pushl	%ebp
	.cfi_def_cfa_offset 8
	.cfi_offset 5, -8
	movl	%esp, %ebp
	.cfi_def_cfa_register 5
	pushl	%ebx
	subl	$100, %esp
	movl	8(%ebp), %eax
	movl	%eax, (%esp)
LEHB108:
	.cfi_offset 3, -12
	call	__ZNSt4listISsSaISsEEC1Ev
LEHE108:
	leal	-72(%ebp), %eax
	movl	%eax, (%esp)
LEHB109:
	call	__ZNSsC1Ev
LEHE109:
	movl	$0, -12(%ebp)
	movl	$0, -16(%ebp)
	jmp	L208
L226:
	movl	-16(%ebp), %eax
	movl	%eax, 4(%esp)
	movl	12(%ebp), %eax
	movl	%eax, (%esp)
LEHB110:
	call	__ZNKSsixEj
LEHE110:
	movb	(%eax), %al
	movb	%al, -17(%ebp)
	leal	-65(%ebp), %eax
	movl	%eax, (%esp)
	call	__ZNSaIcEC1Ev
	movsbl	-17(%ebp), %eax
	leal	-65(%ebp), %edx
	movl	%edx, 12(%esp)
	movl	%eax, 8(%esp)
	movl	$1, 4(%esp)
	leal	-76(%ebp), %eax
	movl	%eax, (%esp)
LEHB111:
	call	__ZNSsC1EjcRKSaIcE
LEHE111:
	leal	-65(%ebp), %eax
	movl	%eax, (%esp)
	call	__ZNSaIcED1Ev
	movsbl	-17(%ebp), %eax
	movl	%eax, (%esp)
	call	_isspace
	testl	%eax, %eax
	jne	L210
L209:
	leal	-76(%ebp), %eax
	movl	%eax, (%esp)
LEHB112:
	call	__Z10IsOperatorRKSs
	testb	%al, %al
	jne	L211
	cmpb	$40, -17(%ebp)
	je	L211
	cmpb	$41, -17(%ebp)
	je	L211
	cmpb	$44, -17(%ebp)
	jne	L212
L211:
	movb	$1, %al
	jmp	L213
L212:
	movb	$0, %al
L213:
	testb	%al, %al
	je	L214
	leal	-72(%ebp), %eax
	movl	%eax, (%esp)
	call	__ZNKSs5emptyEv
	xorl	$1, %eax
	testb	%al, %al
	je	L215
	cmpl	$1, -12(%ebp)
	jne	L216
	leal	-72(%ebp), %eax
	movl	%eax, (%esp)
	call	__ZNKSs4sizeEv
	decl	%eax
	movl	%eax, 4(%esp)
	leal	-72(%ebp), %eax
	movl	%eax, (%esp)
	call	__ZNSsixEj
	movb	(%eax), %al
	cmpb	$46, %al
	jne	L216
	movb	$1, %al
	jmp	L217
L216:
	movb	$0, %al
L217:
	testb	%al, %al
	je	L218
	leal	-56(%ebp), %eax
	movl	16(%ebp), %edx
	movl	%edx, 4(%esp)
	movl	%eax, (%esp)
	call	__Z15ConvertToStringIjESsT_
LEHE112:
	subl	$4, %esp
	leal	-60(%ebp), %eax
	leal	-56(%ebp), %edx
	movl	%edx, 8(%esp)
	movl	$LC35, 4(%esp)
	movl	%eax, (%esp)
LEHB113:
	call	__ZStplIcSt11char_traitsIcESaIcEESbIT_T0_T1_EPKS3_RKS6_
LEHE113:
	subl	$4, %esp
	leal	-64(%ebp), %eax
	movl	$LC36, 8(%esp)
	leal	-60(%ebp), %edx
	movl	%edx, 4(%esp)
	movl	%eax, (%esp)
LEHB114:
	call	__ZStplIcSt11char_traitsIcESaIcEESbIT_T0_T1_ERKS6_PKS3_
LEHE114:
	subl	$4, %esp
	leal	-64(%ebp), %eax
	movl	%eax, (%esp)
LEHB115:
	call	__Z12ProcessErrorRKSs
LEHE115:
	leal	-64(%ebp), %eax
	movl	%eax, (%esp)
LEHB116:
	call	__ZNSsD1Ev
LEHE116:
	leal	-60(%ebp), %eax
	movl	%eax, (%esp)
LEHB117:
	call	__ZNSsD1Ev
LEHE117:
	leal	-56(%ebp), %eax
	movl	%eax, (%esp)
LEHB118:
	call	__ZNSsD1Ev
L218:
	leal	-72(%ebp), %eax
	movl	%eax, 4(%esp)
	movl	8(%ebp), %eax
	movl	%eax, (%esp)
	call	__ZNSt4listISsSaISsEE9push_backERKSs
	leal	-72(%ebp), %eax
	movl	%eax, (%esp)
	call	__ZNSs5clearEv
L215:
	movl	$0, -12(%ebp)
	leal	-76(%ebp), %eax
	movl	%eax, 4(%esp)
	movl	8(%ebp), %eax
	movl	%eax, (%esp)
	call	__ZNSt4listISsSaISsEE9push_backERKSs
	jmp	L210
L214:
	movsbl	-17(%ebp), %eax
	subl	$48, %eax
	cmpl	$9, %eax
	ja	L220
	movsbl	-17(%ebp), %eax
	movl	%eax, 4(%esp)
	leal	-72(%ebp), %eax
	movl	%eax, (%esp)
	call	__ZNSspLEc
	cmpl	$0, -12(%ebp)
	jne	L210
	movl	$1, -12(%ebp)
	jmp	L210
L220:
	cmpb	$46, -17(%ebp)
	jne	L221
	cmpl	$1, -12(%ebp)
	jne	L221
	movsbl	-17(%ebp), %eax
	movl	%eax, 4(%esp)
	leal	-72(%ebp), %eax
	movl	%eax, (%esp)
	call	__ZNSspLEc
	jmp	L210
L221:
	movsbl	-17(%ebp), %eax
	movl	%eax, (%esp)
	call	_isalpha
	testl	%eax, %eax
	jne	L222
	cmpb	$95, -17(%ebp)
	jne	L223
L222:
	cmpl	$0, -12(%ebp)
	je	L224
	cmpl	$2, -12(%ebp)
	jne	L223
L224:
	movsbl	-17(%ebp), %eax
	movl	%eax, 4(%esp)
	leal	-72(%ebp), %eax
	movl	%eax, (%esp)
	call	__ZNSspLEc
	cmpl	$0, -12(%ebp)
	jne	L210
	movl	$2, -12(%ebp)
	jmp	L210
L223:
	leal	-44(%ebp), %eax
	movl	16(%ebp), %edx
	movl	%edx, 4(%esp)
	movl	%eax, (%esp)
	call	__Z15ConvertToStringIjESsT_
LEHE118:
	subl	$4, %esp
	leal	-36(%ebp), %eax
	leal	-76(%ebp), %edx
	movl	%edx, 8(%esp)
	movl	$LC37, 4(%esp)
	movl	%eax, (%esp)
LEHB119:
	call	__ZStplIcSt11char_traitsIcESaIcEESbIT_T0_T1_EPKS3_RKS6_
LEHE119:
	subl	$4, %esp
	leal	-40(%ebp), %eax
	movl	$LC38, 8(%esp)
	leal	-36(%ebp), %edx
	movl	%edx, 4(%esp)
	movl	%eax, (%esp)
LEHB120:
	call	__ZStplIcSt11char_traitsIcESaIcEESbIT_T0_T1_ERKS6_PKS3_
LEHE120:
	subl	$4, %esp
	leal	-48(%ebp), %eax
	leal	-44(%ebp), %edx
	movl	%edx, 8(%esp)
	leal	-40(%ebp), %edx
	movl	%edx, 4(%esp)
	movl	%eax, (%esp)
LEHB121:
	call	__ZStplIcSt11char_traitsIcESaIcEESbIT_T0_T1_ERKS6_S8_
LEHE121:
	subl	$4, %esp
	leal	-52(%ebp), %eax
	movl	$LC36, 8(%esp)
	leal	-48(%ebp), %edx
	movl	%edx, 4(%esp)
	movl	%eax, (%esp)
LEHB122:
	call	__ZStplIcSt11char_traitsIcESaIcEESbIT_T0_T1_ERKS6_PKS3_
LEHE122:
	subl	$4, %esp
	leal	-52(%ebp), %eax
	movl	%eax, (%esp)
LEHB123:
	call	__Z12ProcessErrorRKSs
LEHE123:
	leal	-52(%ebp), %eax
	movl	%eax, (%esp)
LEHB124:
	call	__ZNSsD1Ev
LEHE124:
	leal	-48(%ebp), %eax
	movl	%eax, (%esp)
LEHB125:
	call	__ZNSsD1Ev
LEHE125:
	leal	-40(%ebp), %eax
	movl	%eax, (%esp)
LEHB126:
	call	__ZNSsD1Ev
LEHE126:
	leal	-36(%ebp), %eax
	movl	%eax, (%esp)
LEHB127:
	call	__ZNSsD1Ev
LEHE127:
	leal	-44(%ebp), %eax
	movl	%eax, (%esp)
LEHB128:
	call	__ZNSsD1Ev
LEHE128:
L210:
	leal	-76(%ebp), %eax
	movl	%eax, (%esp)
LEHB129:
	call	__ZNSsD1Ev
	incl	-16(%ebp)
L208:
	movl	12(%ebp), %eax
	movl	%eax, (%esp)
	call	__ZNKSs4sizeEv
	cmpl	-16(%ebp), %eax
	seta	%al
	testb	%al, %al
	jne	L226
	leal	-72(%ebp), %eax
	movl	%eax, (%esp)
	call	__ZNKSs5emptyEv
	xorl	$1, %eax
	testb	%al, %al
	je	L227
	cmpl	$1, -12(%ebp)
	jne	L228
	leal	-72(%ebp), %eax
	movl	%eax, (%esp)
	call	__ZNKSs4sizeEv
	decl	%eax
	movl	%eax, 4(%esp)
	leal	-72(%ebp), %eax
	movl	%eax, (%esp)
	call	__ZNSsixEj
	movb	(%eax), %al
	cmpb	$46, %al
	jne	L228
	movb	$1, %al
	jmp	L229
L228:
	movb	$0, %al
L229:
	testb	%al, %al
	je	L230
	leal	-24(%ebp), %eax
	movl	16(%ebp), %edx
	movl	%edx, 4(%esp)
	movl	%eax, (%esp)
	call	__Z15ConvertToStringIjESsT_
LEHE129:
	subl	$4, %esp
	leal	-28(%ebp), %eax
	leal	-24(%ebp), %edx
	movl	%edx, 8(%esp)
	movl	$LC35, 4(%esp)
	movl	%eax, (%esp)
LEHB130:
	call	__ZStplIcSt11char_traitsIcESaIcEESbIT_T0_T1_EPKS3_RKS6_
LEHE130:
	subl	$4, %esp
	leal	-32(%ebp), %eax
	movl	$LC36, 8(%esp)
	leal	-28(%ebp), %edx
	movl	%edx, 4(%esp)
	movl	%eax, (%esp)
LEHB131:
	call	__ZStplIcSt11char_traitsIcESaIcEESbIT_T0_T1_ERKS6_PKS3_
LEHE131:
	subl	$4, %esp
	leal	-32(%ebp), %eax
	movl	%eax, (%esp)
LEHB132:
	call	__Z12ProcessErrorRKSs
LEHE132:
	leal	-32(%ebp), %eax
	movl	%eax, (%esp)
LEHB133:
	call	__ZNSsD1Ev
LEHE133:
	leal	-28(%ebp), %eax
	movl	%eax, (%esp)
LEHB134:
	call	__ZNSsD1Ev
LEHE134:
	leal	-24(%ebp), %eax
	movl	%eax, (%esp)
LEHB135:
	call	__ZNSsD1Ev
L230:
	leal	-72(%ebp), %eax
	movl	%eax, 4(%esp)
	movl	8(%ebp), %eax
	movl	%eax, (%esp)
	call	__ZNSt4listISsSaISsEE9push_backERKSs
LEHE135:
L227:
	leal	-72(%ebp), %eax
	movl	%eax, (%esp)
LEHB136:
	call	__ZNSsD1Ev
LEHE136:
	jmp	L261
L248:
	movl	%eax, %ebx
	leal	-65(%ebp), %eax
	movl	%eax, (%esp)
	call	__ZNSaIcED1Ev
	jmp	L232
L252:
	movl	%eax, %ebx
	leal	-64(%ebp), %eax
	movl	%eax, (%esp)
	call	__ZNSsD1Ev
	jmp	L234
L251:
	movl	%eax, %ebx
L234:
	leal	-60(%ebp), %eax
	movl	%eax, (%esp)
	call	__ZNSsD1Ev
	jmp	L235
L250:
	movl	%eax, %ebx
L235:
	leal	-56(%ebp), %eax
	movl	%eax, (%esp)
	call	__ZNSsD1Ev
	jmp	L236
L257:
	movl	%eax, %ebx
	leal	-52(%ebp), %eax
	movl	%eax, (%esp)
	call	__ZNSsD1Ev
	jmp	L238
L256:
	movl	%eax, %ebx
L238:
	leal	-48(%ebp), %eax
	movl	%eax, (%esp)
	call	__ZNSsD1Ev
	jmp	L239
L255:
	movl	%eax, %ebx
L239:
	leal	-40(%ebp), %eax
	movl	%eax, (%esp)
	call	__ZNSsD1Ev
	jmp	L240
L254:
	movl	%eax, %ebx
L240:
	leal	-36(%ebp), %eax
	movl	%eax, (%esp)
	call	__ZNSsD1Ev
	jmp	L241
L253:
	movl	%eax, %ebx
L241:
	leal	-44(%ebp), %eax
	movl	%eax, (%esp)
	call	__ZNSsD1Ev
	jmp	L236
L249:
	movl	%eax, %ebx
L236:
	leal	-76(%ebp), %eax
	movl	%eax, (%esp)
	call	__ZNSsD1Ev
	jmp	L232
L260:
	movl	%eax, %ebx
	leal	-32(%ebp), %eax
	movl	%eax, (%esp)
	call	__ZNSsD1Ev
	jmp	L243
L259:
	movl	%eax, %ebx
L243:
	leal	-28(%ebp), %eax
	movl	%eax, (%esp)
	call	__ZNSsD1Ev
	jmp	L244
L258:
	movl	%eax, %ebx
L244:
	leal	-24(%ebp), %eax
	movl	%eax, (%esp)
	call	__ZNSsD1Ev
	jmp	L232
L247:
	movl	%eax, %ebx
L232:
	leal	-72(%ebp), %eax
	movl	%eax, (%esp)
	call	__ZNSsD1Ev
	jmp	L245
L246:
	movl	%eax, %ebx
L245:
	movl	8(%ebp), %eax
	movl	%eax, (%esp)
	call	__ZNSt4listISsSaISsEED1Ev
	movl	%ebx, %eax
	movl	%eax, (%esp)
LEHB137:
	call	__Unwind_Resume
LEHE137:
L261:
	movl	8(%ebp), %eax
	movl	-4(%ebp), %ebx
	leave
	.cfi_restore 5
	.cfi_def_cfa 4, 4
	.cfi_restore 3
	ret	$4
	.cfi_endproc
LFE1846:
	.section	.gcc_except_table,"w"
LLSDA1846:
	.byte	0xff
	.byte	0xff
	.byte	0x1
	.uleb128 LLSDACSE1846-LLSDACSB1846
LLSDACSB1846:
	.uleb128 LEHB108-LFB1846
	.uleb128 LEHE108-LEHB108
	.uleb128 0
	.uleb128 0
	.uleb128 LEHB109-LFB1846
	.uleb128 LEHE109-LEHB109
	.uleb128 L246-LFB1846
	.uleb128 0
	.uleb128 LEHB110-LFB1846
	.uleb128 LEHE110-LEHB110
	.uleb128 L247-LFB1846
	.uleb128 0
	.uleb128 LEHB111-LFB1846
	.uleb128 LEHE111-LEHB111
	.uleb128 L248-LFB1846
	.uleb128 0
	.uleb128 LEHB112-LFB1846
	.uleb128 LEHE112-LEHB112
	.uleb128 L249-LFB1846
	.uleb128 0
	.uleb128 LEHB113-LFB1846
	.uleb128 LEHE113-LEHB113
	.uleb128 L250-LFB1846
	.uleb128 0
	.uleb128 LEHB114-LFB1846
	.uleb128 LEHE114-LEHB114
	.uleb128 L251-LFB1846
	.uleb128 0
	.uleb128 LEHB115-LFB1846
	.uleb128 LEHE115-LEHB115
	.uleb128 L252-LFB1846
	.uleb128 0
	.uleb128 LEHB116-LFB1846
	.uleb128 LEHE116-LEHB116
	.uleb128 L251-LFB1846
	.uleb128 0
	.uleb128 LEHB117-LFB1846
	.uleb128 LEHE117-LEHB117
	.uleb128 L250-LFB1846
	.uleb128 0
	.uleb128 LEHB118-LFB1846
	.uleb128 LEHE118-LEHB118
	.uleb128 L249-LFB1846
	.uleb128 0
	.uleb128 LEHB119-LFB1846
	.uleb128 LEHE119-LEHB119
	.uleb128 L253-LFB1846
	.uleb128 0
	.uleb128 LEHB120-LFB1846
	.uleb128 LEHE120-LEHB120
	.uleb128 L254-LFB1846
	.uleb128 0
	.uleb128 LEHB121-LFB1846
	.uleb128 LEHE121-LEHB121
	.uleb128 L255-LFB1846
	.uleb128 0
	.uleb128 LEHB122-LFB1846
	.uleb128 LEHE122-LEHB122
	.uleb128 L256-LFB1846
	.uleb128 0
	.uleb128 LEHB123-LFB1846
	.uleb128 LEHE123-LEHB123
	.uleb128 L257-LFB1846
	.uleb128 0
	.uleb128 LEHB124-LFB1846
	.uleb128 LEHE124-LEHB124
	.uleb128 L256-LFB1846
	.uleb128 0
	.uleb128 LEHB125-LFB1846
	.uleb128 LEHE125-LEHB125
	.uleb128 L255-LFB1846
	.uleb128 0
	.uleb128 LEHB126-LFB1846
	.uleb128 LEHE126-LEHB126
	.uleb128 L254-LFB1846
	.uleb128 0
	.uleb128 LEHB127-LFB1846
	.uleb128 LEHE127-LEHB127
	.uleb128 L253-LFB1846
	.uleb128 0
	.uleb128 LEHB128-LFB1846
	.uleb128 LEHE128-LEHB128
	.uleb128 L249-LFB1846
	.uleb128 0
	.uleb128 LEHB129-LFB1846
	.uleb128 LEHE129-LEHB129
	.uleb128 L247-LFB1846
	.uleb128 0
	.uleb128 LEHB130-LFB1846
	.uleb128 LEHE130-LEHB130
	.uleb128 L258-LFB1846
	.uleb128 0
	.uleb128 LEHB131-LFB1846
	.uleb128 LEHE131-LEHB131
	.uleb128 L259-LFB1846
	.uleb128 0
	.uleb128 LEHB132-LFB1846
	.uleb128 LEHE132-LEHB132
	.uleb128 L260-LFB1846
	.uleb128 0
	.uleb128 LEHB133-LFB1846
	.uleb128 LEHE133-LEHB133
	.uleb128 L259-LFB1846
	.uleb128 0
	.uleb128 LEHB134-LFB1846
	.uleb128 LEHE134-LEHB134
	.uleb128 L258-LFB1846
	.uleb128 0
	.uleb128 LEHB135-LFB1846
	.uleb128 LEHE135-LEHB135
	.uleb128 L247-LFB1846
	.uleb128 0
	.uleb128 LEHB136-LFB1846
	.uleb128 LEHE136-LEHB136
	.uleb128 L246-LFB1846
	.uleb128 0
	.uleb128 LEHB137-LFB1846
	.uleb128 LEHE137-LEHB137
	.uleb128 0
	.uleb128 0
LLSDACSE1846:
	.text
	.section	.text$_ZNSt3mapISsSsSt4lessISsESaISt4pairIKSsSsEEED1Ev,"x"
	.linkonce discard
	.align 2
	.globl	__ZNSt3mapISsSsSt4lessISsESaISt4pairIKSsSsEEED1Ev
	.def	__ZNSt3mapISsSsSt4lessISsESaISt4pairIKSsSsEEED1Ev;	.scl	2;	.type	32;	.endef
__ZNSt3mapISsSsSt4lessISsESaISt4pairIKSsSsEEED1Ev:
LFB1853:
	.cfi_startproc
	pushl	%ebp
	.cfi_def_cfa_offset 8
	.cfi_offset 5, -8
	movl	%esp, %ebp
	.cfi_def_cfa_register 5
	subl	$24, %esp
	movl	8(%ebp), %eax
	movl	%eax, (%esp)
	call	__ZNSt8_Rb_treeISsSt4pairIKSsSsESt10_Select1stIS2_ESt4lessISsESaIS2_EED1Ev
	leave
	.cfi_restore 5
	.cfi_def_cfa 4, 4
	ret
	.cfi_endproc
LFE1853:
	.section .rdata,"dr"
LC39:
	.ascii "NumberNot\0"
LC40:
	.ascii "NumberMul\0"
LC41:
	.ascii "NumberDiv\0"
LC42:
	.ascii "NumberAdd\0"
LC43:
	.ascii "NumberSub\0"
LC44:
	.ascii "ArrayAppend\0"
LC45:
	.ascii "NumberLs\0"
LC46:
	.ascii "NumberGt\0"
LC47:
	.ascii "NumberEq\0"
LC48:
	.ascii "NumberAnd\0"
LC49:
	.ascii "NumberOr\0"
LC50:
	.ascii "ToString\0"
LC51:
	.ascii "ArrayCreateFromNumber\0"
	.text
	.globl	__Z24GetSubprogramNameByAliasRKSs
	.def	__Z24GetSubprogramNameByAliasRKSs;	.scl	2;	.type	32;	.endef
__Z24GetSubprogramNameByAliasRKSs:
LFB1850:
	.cfi_startproc
	.cfi_personality 0,___gxx_personality_v0
	.cfi_lsda 0,LLSDA1850
	pushl	%ebp
	.cfi_def_cfa_offset 8
	.cfi_offset 5, -8
	movl	%esp, %ebp
	.cfi_def_cfa_register 5
	pushl	%ebx
	subl	$148, %esp
	leal	-128(%ebp), %eax
	movl	%eax, (%esp)
LEHB138:
	.cfi_offset 3, -12
	call	__ZNSt3mapISsSsSt4lessISsESaISt4pairIKSsSsEEEC1Ev
LEHE138:
	leal	-97(%ebp), %eax
	movl	%eax, (%esp)
	call	__ZNSaIcEC1Ev
	leal	-97(%ebp), %eax
	movl	%eax, 8(%esp)
	movl	$LC12, 4(%esp)
	leal	-104(%ebp), %eax
	movl	%eax, (%esp)
LEHB139:
	call	__ZNSsC1EPKcRKSaIcE
LEHE139:
	leal	-104(%ebp), %eax
	movl	%eax, 4(%esp)
	leal	-128(%ebp), %eax
	movl	%eax, (%esp)
LEHB140:
	call	__ZNSt3mapISsSsSt4lessISsESaISt4pairIKSsSsEEEixERS3_
	movl	$LC39, 4(%esp)
	movl	%eax, (%esp)
	call	__ZNSsaSEPKc
LEHE140:
	leal	-104(%ebp), %eax
	movl	%eax, (%esp)
LEHB141:
	call	__ZNSsD1Ev
LEHE141:
	leal	-97(%ebp), %eax
	movl	%eax, (%esp)
	call	__ZNSaIcED1Ev
	leal	-89(%ebp), %eax
	movl	%eax, (%esp)
	call	__ZNSaIcEC1Ev
	leal	-89(%ebp), %eax
	movl	%eax, 8(%esp)
	movl	$LC13, 4(%esp)
	leal	-96(%ebp), %eax
	movl	%eax, (%esp)
LEHB142:
	call	__ZNSsC1EPKcRKSaIcE
LEHE142:
	leal	-96(%ebp), %eax
	movl	%eax, 4(%esp)
	leal	-128(%ebp), %eax
	movl	%eax, (%esp)
LEHB143:
	call	__ZNSt3mapISsSsSt4lessISsESaISt4pairIKSsSsEEEixERS3_
	movl	$LC40, 4(%esp)
	movl	%eax, (%esp)
	call	__ZNSsaSEPKc
LEHE143:
	leal	-96(%ebp), %eax
	movl	%eax, (%esp)
LEHB144:
	call	__ZNSsD1Ev
LEHE144:
	leal	-89(%ebp), %eax
	movl	%eax, (%esp)
	call	__ZNSaIcED1Ev
	leal	-81(%ebp), %eax
	movl	%eax, (%esp)
	call	__ZNSaIcEC1Ev
	leal	-81(%ebp), %eax
	movl	%eax, 8(%esp)
	movl	$LC14, 4(%esp)
	leal	-88(%ebp), %eax
	movl	%eax, (%esp)
LEHB145:
	call	__ZNSsC1EPKcRKSaIcE
LEHE145:
	leal	-88(%ebp), %eax
	movl	%eax, 4(%esp)
	leal	-128(%ebp), %eax
	movl	%eax, (%esp)
LEHB146:
	call	__ZNSt3mapISsSsSt4lessISsESaISt4pairIKSsSsEEEixERS3_
	movl	$LC41, 4(%esp)
	movl	%eax, (%esp)
	call	__ZNSsaSEPKc
LEHE146:
	leal	-88(%ebp), %eax
	movl	%eax, (%esp)
LEHB147:
	call	__ZNSsD1Ev
LEHE147:
	leal	-81(%ebp), %eax
	movl	%eax, (%esp)
	call	__ZNSaIcED1Ev
	leal	-73(%ebp), %eax
	movl	%eax, (%esp)
	call	__ZNSaIcEC1Ev
	leal	-73(%ebp), %eax
	movl	%eax, 8(%esp)
	movl	$LC15, 4(%esp)
	leal	-80(%ebp), %eax
	movl	%eax, (%esp)
LEHB148:
	call	__ZNSsC1EPKcRKSaIcE
LEHE148:
	leal	-80(%ebp), %eax
	movl	%eax, 4(%esp)
	leal	-128(%ebp), %eax
	movl	%eax, (%esp)
LEHB149:
	call	__ZNSt3mapISsSsSt4lessISsESaISt4pairIKSsSsEEEixERS3_
	movl	$LC42, 4(%esp)
	movl	%eax, (%esp)
	call	__ZNSsaSEPKc
LEHE149:
	leal	-80(%ebp), %eax
	movl	%eax, (%esp)
LEHB150:
	call	__ZNSsD1Ev
LEHE150:
	leal	-73(%ebp), %eax
	movl	%eax, (%esp)
	call	__ZNSaIcED1Ev
	leal	-65(%ebp), %eax
	movl	%eax, (%esp)
	call	__ZNSaIcEC1Ev
	leal	-65(%ebp), %eax
	movl	%eax, 8(%esp)
	movl	$LC16, 4(%esp)
	leal	-72(%ebp), %eax
	movl	%eax, (%esp)
LEHB151:
	call	__ZNSsC1EPKcRKSaIcE
LEHE151:
	leal	-72(%ebp), %eax
	movl	%eax, 4(%esp)
	leal	-128(%ebp), %eax
	movl	%eax, (%esp)
LEHB152:
	call	__ZNSt3mapISsSsSt4lessISsESaISt4pairIKSsSsEEEixERS3_
	movl	$LC43, 4(%esp)
	movl	%eax, (%esp)
	call	__ZNSsaSEPKc
LEHE152:
	leal	-72(%ebp), %eax
	movl	%eax, (%esp)
LEHB153:
	call	__ZNSsD1Ev
LEHE153:
	leal	-65(%ebp), %eax
	movl	%eax, (%esp)
	call	__ZNSaIcED1Ev
	leal	-57(%ebp), %eax
	movl	%eax, (%esp)
	call	__ZNSaIcEC1Ev
	leal	-57(%ebp), %eax
	movl	%eax, 8(%esp)
	movl	$LC17, 4(%esp)
	leal	-64(%ebp), %eax
	movl	%eax, (%esp)
LEHB154:
	call	__ZNSsC1EPKcRKSaIcE
LEHE154:
	leal	-64(%ebp), %eax
	movl	%eax, 4(%esp)
	leal	-128(%ebp), %eax
	movl	%eax, (%esp)
LEHB155:
	call	__ZNSt3mapISsSsSt4lessISsESaISt4pairIKSsSsEEEixERS3_
	movl	$LC44, 4(%esp)
	movl	%eax, (%esp)
	call	__ZNSsaSEPKc
LEHE155:
	leal	-64(%ebp), %eax
	movl	%eax, (%esp)
LEHB156:
	call	__ZNSsD1Ev
LEHE156:
	leal	-57(%ebp), %eax
	movl	%eax, (%esp)
	call	__ZNSaIcED1Ev
	leal	-49(%ebp), %eax
	movl	%eax, (%esp)
	call	__ZNSaIcEC1Ev
	leal	-49(%ebp), %eax
	movl	%eax, 8(%esp)
	movl	$LC18, 4(%esp)
	leal	-56(%ebp), %eax
	movl	%eax, (%esp)
LEHB157:
	call	__ZNSsC1EPKcRKSaIcE
LEHE157:
	leal	-56(%ebp), %eax
	movl	%eax, 4(%esp)
	leal	-128(%ebp), %eax
	movl	%eax, (%esp)
LEHB158:
	call	__ZNSt3mapISsSsSt4lessISsESaISt4pairIKSsSsEEEixERS3_
	movl	$LC45, 4(%esp)
	movl	%eax, (%esp)
	call	__ZNSsaSEPKc
LEHE158:
	leal	-56(%ebp), %eax
	movl	%eax, (%esp)
LEHB159:
	call	__ZNSsD1Ev
LEHE159:
	leal	-49(%ebp), %eax
	movl	%eax, (%esp)
	call	__ZNSaIcED1Ev
	leal	-41(%ebp), %eax
	movl	%eax, (%esp)
	call	__ZNSaIcEC1Ev
	leal	-41(%ebp), %eax
	movl	%eax, 8(%esp)
	movl	$LC19, 4(%esp)
	leal	-48(%ebp), %eax
	movl	%eax, (%esp)
LEHB160:
	call	__ZNSsC1EPKcRKSaIcE
LEHE160:
	leal	-48(%ebp), %eax
	movl	%eax, 4(%esp)
	leal	-128(%ebp), %eax
	movl	%eax, (%esp)
LEHB161:
	call	__ZNSt3mapISsSsSt4lessISsESaISt4pairIKSsSsEEEixERS3_
	movl	$LC46, 4(%esp)
	movl	%eax, (%esp)
	call	__ZNSsaSEPKc
LEHE161:
	leal	-48(%ebp), %eax
	movl	%eax, (%esp)
LEHB162:
	call	__ZNSsD1Ev
LEHE162:
	leal	-41(%ebp), %eax
	movl	%eax, (%esp)
	call	__ZNSaIcED1Ev
	leal	-33(%ebp), %eax
	movl	%eax, (%esp)
	call	__ZNSaIcEC1Ev
	leal	-33(%ebp), %eax
	movl	%eax, 8(%esp)
	movl	$LC20, 4(%esp)
	leal	-40(%ebp), %eax
	movl	%eax, (%esp)
LEHB163:
	call	__ZNSsC1EPKcRKSaIcE
LEHE163:
	leal	-40(%ebp), %eax
	movl	%eax, 4(%esp)
	leal	-128(%ebp), %eax
	movl	%eax, (%esp)
LEHB164:
	call	__ZNSt3mapISsSsSt4lessISsESaISt4pairIKSsSsEEEixERS3_
	movl	$LC47, 4(%esp)
	movl	%eax, (%esp)
	call	__ZNSsaSEPKc
LEHE164:
	leal	-40(%ebp), %eax
	movl	%eax, (%esp)
LEHB165:
	call	__ZNSsD1Ev
LEHE165:
	leal	-33(%ebp), %eax
	movl	%eax, (%esp)
	call	__ZNSaIcED1Ev
	leal	-25(%ebp), %eax
	movl	%eax, (%esp)
	call	__ZNSaIcEC1Ev
	leal	-25(%ebp), %eax
	movl	%eax, 8(%esp)
	movl	$LC21, 4(%esp)
	leal	-32(%ebp), %eax
	movl	%eax, (%esp)
LEHB166:
	call	__ZNSsC1EPKcRKSaIcE
LEHE166:
	leal	-32(%ebp), %eax
	movl	%eax, 4(%esp)
	leal	-128(%ebp), %eax
	movl	%eax, (%esp)
LEHB167:
	call	__ZNSt3mapISsSsSt4lessISsESaISt4pairIKSsSsEEEixERS3_
	movl	$LC48, 4(%esp)
	movl	%eax, (%esp)
	call	__ZNSsaSEPKc
LEHE167:
	leal	-32(%ebp), %eax
	movl	%eax, (%esp)
LEHB168:
	call	__ZNSsD1Ev
LEHE168:
	leal	-25(%ebp), %eax
	movl	%eax, (%esp)
	call	__ZNSaIcED1Ev
	leal	-17(%ebp), %eax
	movl	%eax, (%esp)
	call	__ZNSaIcEC1Ev
	leal	-17(%ebp), %eax
	movl	%eax, 8(%esp)
	movl	$LC22, 4(%esp)
	leal	-24(%ebp), %eax
	movl	%eax, (%esp)
LEHB169:
	call	__ZNSsC1EPKcRKSaIcE
LEHE169:
	leal	-24(%ebp), %eax
	movl	%eax, 4(%esp)
	leal	-128(%ebp), %eax
	movl	%eax, (%esp)
LEHB170:
	call	__ZNSt3mapISsSsSt4lessISsESaISt4pairIKSsSsEEEixERS3_
	movl	$LC49, 4(%esp)
	movl	%eax, (%esp)
	call	__ZNSsaSEPKc
LEHE170:
	leal	-24(%ebp), %eax
	movl	%eax, (%esp)
LEHB171:
	call	__ZNSsD1Ev
LEHE171:
	leal	-17(%ebp), %eax
	movl	%eax, (%esp)
	call	__ZNSaIcED1Ev
	leal	-9(%ebp), %eax
	movl	%eax, (%esp)
	call	__ZNSaIcEC1Ev
	leal	-9(%ebp), %eax
	movl	%eax, 8(%esp)
	movl	$LC50, 4(%esp)
	leal	-16(%ebp), %eax
	movl	%eax, (%esp)
LEHB172:
	call	__ZNSsC1EPKcRKSaIcE
LEHE172:
	leal	-16(%ebp), %eax
	movl	%eax, 4(%esp)
	leal	-128(%ebp), %eax
	movl	%eax, (%esp)
LEHB173:
	call	__ZNSt3mapISsSsSt4lessISsESaISt4pairIKSsSsEEEixERS3_
	movl	$LC51, 4(%esp)
	movl	%eax, (%esp)
	call	__ZNSsaSEPKc
LEHE173:
	leal	-16(%ebp), %eax
	movl	%eax, (%esp)
LEHB174:
	call	__ZNSsD1Ev
LEHE174:
	leal	-9(%ebp), %eax
	movl	%eax, (%esp)
	call	__ZNSaIcED1Ev
	movl	12(%ebp), %eax
	movl	%eax, 4(%esp)
	leal	-128(%ebp), %eax
	movl	%eax, (%esp)
LEHB175:
	call	__ZNKSt3mapISsSsSt4lessISsESaISt4pairIKSsSsEEE5countERS3_
	cmpl	$1, %eax
	sete	%al
	testb	%al, %al
	je	L265
	movl	12(%ebp), %eax
	movl	%eax, 4(%esp)
	leal	-128(%ebp), %eax
	movl	%eax, (%esp)
	call	__ZNSt3mapISsSsSt4lessISsESaISt4pairIKSsSsEEEixERS3_
	movl	%eax, 4(%esp)
	movl	8(%ebp), %eax
	movl	%eax, (%esp)
	call	__ZNSsC1ERKSs
	jmp	L266
L265:
	movl	12(%ebp), %eax
	movl	%eax, 4(%esp)
	movl	8(%ebp), %eax
	movl	%eax, (%esp)
	call	__ZNSsC1ERKSs
LEHE175:
L266:
	leal	-128(%ebp), %eax
	movl	%eax, (%esp)
LEHB176:
	call	__ZNSt3mapISsSsSt4lessISsESaISt4pairIKSsSsEEED1Ev
LEHE176:
	movl	8(%ebp), %eax
	addl	$148, %esp
	popl	%ebx
	.cfi_remember_state
	.cfi_restore 3
	popl	%ebp
	.cfi_def_cfa 4, 4
	.cfi_restore 5
	ret	$4
L293:
	.cfi_restore_state
	movl	%eax, %ebx
	leal	-104(%ebp), %eax
	movl	%eax, (%esp)
	call	__ZNSsD1Ev
	jmp	L268
L292:
	movl	%eax, %ebx
L268:
	leal	-97(%ebp), %eax
	movl	%eax, (%esp)
	call	__ZNSaIcED1Ev
	jmp	L269
L296:
	movl	%eax, %ebx
	leal	-96(%ebp), %eax
	movl	%eax, (%esp)
	call	__ZNSsD1Ev
	jmp	L271
L295:
	movl	%eax, %ebx
L271:
	leal	-89(%ebp), %eax
	movl	%eax, (%esp)
	call	__ZNSaIcED1Ev
	jmp	L269
L298:
	movl	%eax, %ebx
	leal	-88(%ebp), %eax
	movl	%eax, (%esp)
	call	__ZNSsD1Ev
	jmp	L273
L297:
	movl	%eax, %ebx
L273:
	leal	-81(%ebp), %eax
	movl	%eax, (%esp)
	call	__ZNSaIcED1Ev
	jmp	L269
L300:
	movl	%eax, %ebx
	leal	-80(%ebp), %eax
	movl	%eax, (%esp)
	call	__ZNSsD1Ev
	jmp	L275
L299:
	movl	%eax, %ebx
L275:
	leal	-73(%ebp), %eax
	movl	%eax, (%esp)
	call	__ZNSaIcED1Ev
	jmp	L269
L302:
	movl	%eax, %ebx
	leal	-72(%ebp), %eax
	movl	%eax, (%esp)
	call	__ZNSsD1Ev
	jmp	L277
L301:
	movl	%eax, %ebx
L277:
	leal	-65(%ebp), %eax
	movl	%eax, (%esp)
	call	__ZNSaIcED1Ev
	jmp	L269
L304:
	movl	%eax, %ebx
	leal	-64(%ebp), %eax
	movl	%eax, (%esp)
	call	__ZNSsD1Ev
	jmp	L279
L303:
	movl	%eax, %ebx
L279:
	leal	-57(%ebp), %eax
	movl	%eax, (%esp)
	call	__ZNSaIcED1Ev
	jmp	L269
L306:
	movl	%eax, %ebx
	leal	-56(%ebp), %eax
	movl	%eax, (%esp)
	call	__ZNSsD1Ev
	jmp	L281
L305:
	movl	%eax, %ebx
L281:
	leal	-49(%ebp), %eax
	movl	%eax, (%esp)
	call	__ZNSaIcED1Ev
	jmp	L269
L308:
	movl	%eax, %ebx
	leal	-48(%ebp), %eax
	movl	%eax, (%esp)
	call	__ZNSsD1Ev
	jmp	L283
L307:
	movl	%eax, %ebx
L283:
	leal	-41(%ebp), %eax
	movl	%eax, (%esp)
	call	__ZNSaIcED1Ev
	jmp	L269
L310:
	movl	%eax, %ebx
	leal	-40(%ebp), %eax
	movl	%eax, (%esp)
	call	__ZNSsD1Ev
	jmp	L285
L309:
	movl	%eax, %ebx
L285:
	leal	-33(%ebp), %eax
	movl	%eax, (%esp)
	call	__ZNSaIcED1Ev
	jmp	L269
L312:
	movl	%eax, %ebx
	leal	-32(%ebp), %eax
	movl	%eax, (%esp)
	call	__ZNSsD1Ev
	jmp	L287
L311:
	movl	%eax, %ebx
L287:
	leal	-25(%ebp), %eax
	movl	%eax, (%esp)
	call	__ZNSaIcED1Ev
	jmp	L269
L314:
	movl	%eax, %ebx
	leal	-24(%ebp), %eax
	movl	%eax, (%esp)
	call	__ZNSsD1Ev
	jmp	L289
L313:
	movl	%eax, %ebx
L289:
	leal	-17(%ebp), %eax
	movl	%eax, (%esp)
	call	__ZNSaIcED1Ev
	jmp	L269
L316:
	movl	%eax, %ebx
	leal	-16(%ebp), %eax
	movl	%eax, (%esp)
	call	__ZNSsD1Ev
	jmp	L291
L315:
	movl	%eax, %ebx
L291:
	leal	-9(%ebp), %eax
	movl	%eax, (%esp)
	call	__ZNSaIcED1Ev
	jmp	L269
L294:
	movl	%eax, %ebx
L269:
	leal	-128(%ebp), %eax
	movl	%eax, (%esp)
	call	__ZNSt3mapISsSsSt4lessISsESaISt4pairIKSsSsEEED1Ev
	movl	%ebx, %eax
	movl	%eax, (%esp)
LEHB177:
	call	__Unwind_Resume
LEHE177:
	.cfi_endproc
LFE1850:
	.section	.gcc_except_table,"w"
LLSDA1850:
	.byte	0xff
	.byte	0xff
	.byte	0x1
	.uleb128 LLSDACSE1850-LLSDACSB1850
LLSDACSB1850:
	.uleb128 LEHB138-LFB1850
	.uleb128 LEHE138-LEHB138
	.uleb128 0
	.uleb128 0
	.uleb128 LEHB139-LFB1850
	.uleb128 LEHE139-LEHB139
	.uleb128 L292-LFB1850
	.uleb128 0
	.uleb128 LEHB140-LFB1850
	.uleb128 LEHE140-LEHB140
	.uleb128 L293-LFB1850
	.uleb128 0
	.uleb128 LEHB141-LFB1850
	.uleb128 LEHE141-LEHB141
	.uleb128 L292-LFB1850
	.uleb128 0
	.uleb128 LEHB142-LFB1850
	.uleb128 LEHE142-LEHB142
	.uleb128 L295-LFB1850
	.uleb128 0
	.uleb128 LEHB143-LFB1850
	.uleb128 LEHE143-LEHB143
	.uleb128 L296-LFB1850
	.uleb128 0
	.uleb128 LEHB144-LFB1850
	.uleb128 LEHE144-LEHB144
	.uleb128 L295-LFB1850
	.uleb128 0
	.uleb128 LEHB145-LFB1850
	.uleb128 LEHE145-LEHB145
	.uleb128 L297-LFB1850
	.uleb128 0
	.uleb128 LEHB146-LFB1850
	.uleb128 LEHE146-LEHB146
	.uleb128 L298-LFB1850
	.uleb128 0
	.uleb128 LEHB147-LFB1850
	.uleb128 LEHE147-LEHB147
	.uleb128 L297-LFB1850
	.uleb128 0
	.uleb128 LEHB148-LFB1850
	.uleb128 LEHE148-LEHB148
	.uleb128 L299-LFB1850
	.uleb128 0
	.uleb128 LEHB149-LFB1850
	.uleb128 LEHE149-LEHB149
	.uleb128 L300-LFB1850
	.uleb128 0
	.uleb128 LEHB150-LFB1850
	.uleb128 LEHE150-LEHB150
	.uleb128 L299-LFB1850
	.uleb128 0
	.uleb128 LEHB151-LFB1850
	.uleb128 LEHE151-LEHB151
	.uleb128 L301-LFB1850
	.uleb128 0
	.uleb128 LEHB152-LFB1850
	.uleb128 LEHE152-LEHB152
	.uleb128 L302-LFB1850
	.uleb128 0
	.uleb128 LEHB153-LFB1850
	.uleb128 LEHE153-LEHB153
	.uleb128 L301-LFB1850
	.uleb128 0
	.uleb128 LEHB154-LFB1850
	.uleb128 LEHE154-LEHB154
	.uleb128 L303-LFB1850
	.uleb128 0
	.uleb128 LEHB155-LFB1850
	.uleb128 LEHE155-LEHB155
	.uleb128 L304-LFB1850
	.uleb128 0
	.uleb128 LEHB156-LFB1850
	.uleb128 LEHE156-LEHB156
	.uleb128 L303-LFB1850
	.uleb128 0
	.uleb128 LEHB157-LFB1850
	.uleb128 LEHE157-LEHB157
	.uleb128 L305-LFB1850
	.uleb128 0
	.uleb128 LEHB158-LFB1850
	.uleb128 LEHE158-LEHB158
	.uleb128 L306-LFB1850
	.uleb128 0
	.uleb128 LEHB159-LFB1850
	.uleb128 LEHE159-LEHB159
	.uleb128 L305-LFB1850
	.uleb128 0
	.uleb128 LEHB160-LFB1850
	.uleb128 LEHE160-LEHB160
	.uleb128 L307-LFB1850
	.uleb128 0
	.uleb128 LEHB161-LFB1850
	.uleb128 LEHE161-LEHB161
	.uleb128 L308-LFB1850
	.uleb128 0
	.uleb128 LEHB162-LFB1850
	.uleb128 LEHE162-LEHB162
	.uleb128 L307-LFB1850
	.uleb128 0
	.uleb128 LEHB163-LFB1850
	.uleb128 LEHE163-LEHB163
	.uleb128 L309-LFB1850
	.uleb128 0
	.uleb128 LEHB164-LFB1850
	.uleb128 LEHE164-LEHB164
	.uleb128 L310-LFB1850
	.uleb128 0
	.uleb128 LEHB165-LFB1850
	.uleb128 LEHE165-LEHB165
	.uleb128 L309-LFB1850
	.uleb128 0
	.uleb128 LEHB166-LFB1850
	.uleb128 LEHE166-LEHB166
	.uleb128 L311-LFB1850
	.uleb128 0
	.uleb128 LEHB167-LFB1850
	.uleb128 LEHE167-LEHB167
	.uleb128 L312-LFB1850
	.uleb128 0
	.uleb128 LEHB168-LFB1850
	.uleb128 LEHE168-LEHB168
	.uleb128 L311-LFB1850
	.uleb128 0
	.uleb128 LEHB169-LFB1850
	.uleb128 LEHE169-LEHB169
	.uleb128 L313-LFB1850
	.uleb128 0
	.uleb128 LEHB170-LFB1850
	.uleb128 LEHE170-LEHB170
	.uleb128 L314-LFB1850
	.uleb128 0
	.uleb128 LEHB171-LFB1850
	.uleb128 LEHE171-LEHB171
	.uleb128 L313-LFB1850
	.uleb128 0
	.uleb128 LEHB172-LFB1850
	.uleb128 LEHE172-LEHB172
	.uleb128 L315-LFB1850
	.uleb128 0
	.uleb128 LEHB173-LFB1850
	.uleb128 LEHE173-LEHB173
	.uleb128 L316-LFB1850
	.uleb128 0
	.uleb128 LEHB174-LFB1850
	.uleb128 LEHE174-LEHB174
	.uleb128 L315-LFB1850
	.uleb128 0
	.uleb128 LEHB175-LFB1850
	.uleb128 LEHE175-LEHB175
	.uleb128 L294-LFB1850
	.uleb128 0
	.uleb128 LEHB176-LFB1850
	.uleb128 LEHE176-LEHB176
	.uleb128 0
	.uleb128 0
	.uleb128 LEHB177-LFB1850
	.uleb128 LEHE177-LEHB177
	.uleb128 0
	.uleb128 0
LLSDACSE1850:
	.text
	.section	.text$_ZNSt4listI16ByteCodeMnemonicSaIS0_EED1Ev,"x"
	.linkonce discard
	.align 2
	.globl	__ZNSt4listI16ByteCodeMnemonicSaIS0_EED1Ev
	.def	__ZNSt4listI16ByteCodeMnemonicSaIS0_EED1Ev;	.scl	2;	.type	32;	.endef
__ZNSt4listI16ByteCodeMnemonicSaIS0_EED1Ev:
LFB1858:
	.cfi_startproc
	pushl	%ebp
	.cfi_def_cfa_offset 8
	.cfi_offset 5, -8
	movl	%esp, %ebp
	.cfi_def_cfa_register 5
	subl	$24, %esp
	movl	8(%ebp), %eax
	movl	%eax, (%esp)
	call	__ZNSt10_List_baseI16ByteCodeMnemonicSaIS0_EED2Ev
	leave
	.cfi_restore 5
	.cfi_def_cfa 4, 4
	ret
	.cfi_endproc
LFE1858:
	.section	.text$_ZNSt4pairISt4listI16ByteCodeMnemonicSaIS1_EEhED1Ev,"x"
	.linkonce discard
	.align 2
	.globl	__ZNSt4pairISt4listI16ByteCodeMnemonicSaIS1_EEhED1Ev
	.def	__ZNSt4pairISt4listI16ByteCodeMnemonicSaIS1_EEhED1Ev;	.scl	2;	.type	32;	.endef
__ZNSt4pairISt4listI16ByteCodeMnemonicSaIS1_EEhED1Ev:
LFB1860:
	.cfi_startproc
	pushl	%ebp
	.cfi_def_cfa_offset 8
	.cfi_offset 5, -8
	movl	%esp, %ebp
	.cfi_def_cfa_register 5
	subl	$24, %esp
	movl	8(%ebp), %eax
	movl	%eax, (%esp)
	call	__ZNSt4listI16ByteCodeMnemonicSaIS0_EED1Ev
	leave
	.cfi_restore 5
	.cfi_def_cfa 4, 4
	ret
	.cfi_endproc
LFE1860:
	.section	.text$_ZNSt5stackIjSt5dequeIjSaIjEEED1Ev,"x"
	.linkonce discard
	.align 2
	.globl	__ZNSt5stackIjSt5dequeIjSaIjEEED1Ev
	.def	__ZNSt5stackIjSt5dequeIjSaIjEEED1Ev;	.scl	2;	.type	32;	.endef
__ZNSt5stackIjSt5dequeIjSaIjEEED1Ev:
LFB1863:
	.cfi_startproc
	pushl	%ebp
	.cfi_def_cfa_offset 8
	.cfi_offset 5, -8
	movl	%esp, %ebp
	.cfi_def_cfa_register 5
	subl	$24, %esp
	movl	8(%ebp), %eax
	movl	%eax, (%esp)
	call	__ZNSt5dequeIjSaIjEED1Ev
	leave
	.cfi_restore 5
	.cfi_def_cfa 4, 4
	ret
	.cfi_endproc
LFE1863:
	.section	.text$_ZN16ByteCodeMnemonicD1Ev,"x"
	.linkonce discard
	.align 2
	.globl	__ZN16ByteCodeMnemonicD1Ev
	.def	__ZN16ByteCodeMnemonicD1Ev;	.scl	2;	.type	32;	.endef
__ZN16ByteCodeMnemonicD1Ev:
LFB1866:
	.cfi_startproc
	.cfi_personality 0,___gxx_personality_v0
	.cfi_lsda 0,LLSDA1866
	pushl	%ebp
	.cfi_def_cfa_offset 8
	.cfi_offset 5, -8
	movl	%esp, %ebp
	.cfi_def_cfa_register 5
	pushl	%ebx
	subl	$20, %esp
	movl	8(%ebp), %eax
	addl	$4, %eax
	movl	%eax, (%esp)
LEHB178:
	.cfi_offset 3, -12
	call	__ZNSsD1Ev
LEHE178:
	movl	8(%ebp), %eax
	movl	%eax, (%esp)
LEHB179:
	call	__ZNSsD1Ev
LEHE179:
	addl	$20, %esp
	popl	%ebx
	.cfi_remember_state
	.cfi_restore 3
	popl	%ebp
	.cfi_def_cfa 4, 4
	.cfi_restore 5
	ret
L326:
	.cfi_restore_state
	movl	%eax, %ebx
	movl	8(%ebp), %eax
	movl	%eax, (%esp)
	call	__ZNSsD1Ev
	movl	%ebx, %eax
	movl	%eax, (%esp)
LEHB180:
	call	__Unwind_Resume
LEHE180:
	.cfi_endproc
LFE1866:
	.section	.gcc_except_table,"w"
LLSDA1866:
	.byte	0xff
	.byte	0xff
	.byte	0x1
	.uleb128 LLSDACSE1866-LLSDACSB1866
LLSDACSB1866:
	.uleb128 LEHB178-LFB1866
	.uleb128 LEHE178-LEHB178
	.uleb128 L326-LFB1866
	.uleb128 0
	.uleb128 LEHB179-LFB1866
	.uleb128 LEHE179-LEHB179
	.uleb128 0
	.uleb128 0
	.uleb128 LEHB180-LFB1866
	.uleb128 LEHE180-LEHB180
	.uleb128 0
	.uleb128 0
LLSDACSE1866:
	.section	.text$_ZN16ByteCodeMnemonicD1Ev,"x"
	.linkonce discard
	.section .rdata,"dr"
LC52:
	.ascii "push_n\0"
LC53:
	.ascii "push_v\0"
LC54:
	.ascii ",\0"
	.align 4
LC55:
	.ascii "Missed subprogram argument separator or opening bracket on line \0"
LC56:
	.ascii "(\0"
LC57:
	.ascii "call\0"
	.align 4
LC58:
	.ascii "Subprogram argument separator without subprogram on line \0"
LC59:
	.ascii ")\0"
	.align 4
LC60:
	.ascii "Missed opening bracket on line \0"
LC61:
	.ascii "s\0"
LC62:
	.ascii "\0"
	.align 4
LC63:
	.ascii "Invalid number of arguments for subprogram \"\0"
LC64:
	.ascii "\" (expected \0"
LC65:
	.ascii " argument\0"
LC66:
	.ascii ", but gots \0"
LC67:
	.ascii ") on line \0"
LC68:
	.ascii "c_string\0"
LC69:
	.ascii "to_str\0"
LC70:
	.ascii "Unknown expression token \"\0"
LC71:
	.ascii "\" on line \0"
	.align 4
LC72:
	.ascii "Missed closing bracket on line \0"
LC73:
	.ascii "Illegal conversion on line \0"
	.align 4
LC74:
	.ascii "Using result of procedure on line \0"
	.text
	.globl	__Z17CompileExpressionRKSt4listISsSaISsEERKSt3mapISsjSt4lessISsESaISt4pairIKSsjEEERSB_j
	.def	__Z17CompileExpressionRKSt4listISsSaISsEERKSt3mapISsjSt4lessISsESaISt4pairIKSsjEEERSB_j;	.scl	2;	.type	32;	.endef
__Z17CompileExpressionRKSt4listISsSaISsEERKSt3mapISsjSt4lessISsESaISt4pairIKSsjEEERSB_j:
LFB1854:
	.cfi_startproc
	.cfi_personality 0,___gxx_personality_v0
	.cfi_lsda 0,LLSDA1854
	pushl	%ebp
	.cfi_def_cfa_offset 8
	.cfi_offset 5, -8
	movl	%esp, %ebp
	.cfi_def_cfa_register 5
	pushl	%ebx
	subl	$532, %esp
	movl	8(%ebp), %eax
	movl	%eax, (%esp)
LEHB181:
	.cfi_offset 3, -12
	call	__ZNSt4pairISt4listI16ByteCodeMnemonicSaIS1_EEhEC1Ev
LEHE181:
	leal	-420(%ebp), %eax
	movl	%eax, (%esp)
LEHB182:
	call	__ZNSt4listISsSaISsEEC1Ev
LEHE182:
	leal	-412(%ebp), %eax
	movl	%eax, (%esp)
LEHB183:
	call	__ZNSt5dequeIjSaIjEEC1Ev
LEHE183:
	leal	-412(%ebp), %eax
	movl	%eax, 4(%esp)
	leal	-512(%ebp), %eax
	movl	%eax, (%esp)
LEHB184:
	call	__ZNSt5stackIjSt5dequeIjSaIjEEEC1ERKS2_
LEHE184:
	leal	-412(%ebp), %eax
	movl	%eax, (%esp)
LEHB185:
	call	__ZNSt5dequeIjSaIjEED1Ev
	movb	$0, -9(%ebp)
	movb	$0, -10(%ebp)
	movl	$0, -16(%ebp)
	movl	12(%ebp), %eax
	movl	%eax, (%esp)
	call	__ZNKSt4listISsSaISsEE5beginEv
	movl	%eax, -424(%ebp)
	jmp	L328
L395:
	leal	-424(%ebp), %eax
	movl	%eax, (%esp)
	call	__ZNKSt20_List_const_iteratorISsEdeEv
	movl	%eax, 4(%esp)
	leal	-428(%ebp), %eax
	movl	%eax, (%esp)
	call	__ZNSsC1ERKSs
LEHE185:
	leal	-428(%ebp), %eax
	movl	%eax, (%esp)
LEHB186:
	call	__Z8IsNumberRKSs
	testb	%al, %al
	je	L329
	leal	-428(%ebp), %eax
	movl	%eax, 4(%esp)
	leal	-356(%ebp), %eax
	movl	%eax, (%esp)
	call	__ZNSsC1ERKSs
LEHE186:
	leal	-345(%ebp), %eax
	movl	%eax, (%esp)
	call	__ZNSaIcEC1Ev
	leal	-345(%ebp), %eax
	movl	%eax, 8(%esp)
	movl	$LC52, 4(%esp)
	leal	-352(%ebp), %eax
	movl	%eax, (%esp)
LEHB187:
	call	__ZNSsC1EPKcRKSaIcE
LEHE187:
	movl	24(%ebp), %eax
	movl	%eax, 12(%esp)
	leal	-356(%ebp), %eax
	movl	%eax, 8(%esp)
	leal	-352(%ebp), %eax
	movl	%eax, 4(%esp)
	leal	-368(%ebp), %eax
	movl	%eax, (%esp)
LEHB188:
	call	__ZN16ByteCodeMnemonicC1ESsSsj
LEHE188:
	movl	8(%ebp), %eax
	leal	-368(%ebp), %edx
	movl	%edx, 4(%esp)
	movl	%eax, (%esp)
LEHB189:
	call	__ZNSt4listI16ByteCodeMnemonicSaIS0_EE9push_backERKS0_
LEHE189:
	leal	-368(%ebp), %eax
	movl	%eax, (%esp)
LEHB190:
	call	__ZN16ByteCodeMnemonicD1Ev
LEHE190:
	leal	-352(%ebp), %eax
	movl	%eax, (%esp)
LEHB191:
	call	__ZNSsD1Ev
LEHE191:
	leal	-345(%ebp), %eax
	movl	%eax, (%esp)
	call	__ZNSaIcED1Ev
	leal	-356(%ebp), %eax
	movl	%eax, (%esp)
LEHB192:
	call	__ZNSsD1Ev
	movl	8(%ebp), %eax
	movb	8(%eax), %al
	movb	%al, %dl
	orl	$2, %edx
	movl	8(%ebp), %eax
	movb	%dl, 8(%eax)
	movb	$1, -9(%ebp)
	jmp	L330
L329:
	leal	-428(%ebp), %eax
	movl	%eax, (%esp)
	call	__Z12IsIdentifierRKSs
	testb	%al, %al
	je	L331
	leal	-432(%ebp), %eax
	leal	-428(%ebp), %edx
	movl	%edx, 4(%esp)
	movl	%eax, (%esp)
	call	__Z24GetSubprogramNameByAliasRKSs
LEHE192:
	subl	$4, %esp
	leal	-428(%ebp), %eax
	movl	%eax, (%esp)
LEHB193:
	call	__Z10IsOperatorRKSs
	xorl	$1, %eax
	testb	%al, %al
	je	L332
	leal	-432(%ebp), %eax
	movl	%eax, 4(%esp)
	movl	16(%ebp), %eax
	movl	%eax, (%esp)
	call	__ZNKSt3mapISsjSt4lessISsESaISt4pairIKSsjEEE5countERS3_
	cmpl	$1, %eax
	je	L333
	leal	-432(%ebp), %eax
	movl	%eax, 4(%esp)
	movl	20(%ebp), %eax
	movl	%eax, (%esp)
	call	__ZNKSt3mapISsjSt4lessISsESaISt4pairIKSsjEEE5countERS3_
	cmpl	$1, %eax
	jne	L332
L333:
	movb	$1, %al
	jmp	L334
L332:
	movb	$0, %al
L334:
	testb	%al, %al
	je	L335
	leal	-428(%ebp), %eax
	movl	%eax, 4(%esp)
	leal	-420(%ebp), %eax
	movl	%eax, (%esp)
	call	__ZNSt4listISsSaISsEE9push_backERKSs
	movl	$0, -344(%ebp)
	leal	-344(%ebp), %eax
	movl	%eax, 4(%esp)
	leal	-512(%ebp), %eax
	movl	%eax, (%esp)
	call	__ZNSt5stackIjSt5dequeIjSaIjEEE4pushERKj
	jmp	L336
L335:
	leal	-428(%ebp), %eax
	movl	%eax, 4(%esp)
	leal	-328(%ebp), %eax
	movl	%eax, (%esp)
	call	__ZNSsC1ERKSs
LEHE193:
	leal	-317(%ebp), %eax
	movl	%eax, (%esp)
	call	__ZNSaIcEC1Ev
	leal	-317(%ebp), %eax
	movl	%eax, 8(%esp)
	movl	$LC53, 4(%esp)
	leal	-324(%ebp), %eax
	movl	%eax, (%esp)
LEHB194:
	call	__ZNSsC1EPKcRKSaIcE
LEHE194:
	movl	24(%ebp), %eax
	movl	%eax, 12(%esp)
	leal	-328(%ebp), %eax
	movl	%eax, 8(%esp)
	leal	-324(%ebp), %eax
	movl	%eax, 4(%esp)
	leal	-340(%ebp), %eax
	movl	%eax, (%esp)
LEHB195:
	call	__ZN16ByteCodeMnemonicC1ESsSsj
LEHE195:
	movl	8(%ebp), %eax
	leal	-340(%ebp), %edx
	movl	%edx, 4(%esp)
	movl	%eax, (%esp)
LEHB196:
	call	__ZNSt4listI16ByteCodeMnemonicSaIS0_EE9push_backERKS0_
LEHE196:
	leal	-340(%ebp), %eax
	movl	%eax, (%esp)
LEHB197:
	call	__ZN16ByteCodeMnemonicD1Ev
LEHE197:
	leal	-324(%ebp), %eax
	movl	%eax, (%esp)
LEHB198:
	call	__ZNSsD1Ev
LEHE198:
	leal	-317(%ebp), %eax
	movl	%eax, (%esp)
	call	__ZNSaIcED1Ev
	leal	-328(%ebp), %eax
	movl	%eax, (%esp)
LEHB199:
	call	__ZNSsD1Ev
LEHE199:
	movl	8(%ebp), %eax
	movb	8(%eax), %al
	movb	%al, %dl
	orl	$2, %edx
	movl	8(%ebp), %eax
	movb	%dl, 8(%eax)
	movb	$1, -9(%ebp)
L336:
	leal	-432(%ebp), %eax
	movl	%eax, (%esp)
LEHB200:
	call	__ZNSsD1Ev
	jmp	L330
L331:
	movl	$LC54, 4(%esp)
	leal	-428(%ebp), %eax
	movl	%eax, (%esp)
	call	__ZSteqIcSt11char_traitsIcESaIcEEbRKSbIT_T0_T1_EPKS3_
	testb	%al, %al
	je	L337
	jmp	L348
L560:
	nop
L348:
	leal	-420(%ebp), %eax
	movl	%eax, (%esp)
	call	__ZNKSt4listISsSaISsEE5emptyEv
	testb	%al, %al
	je	L338
	leal	-308(%ebp), %eax
	movl	24(%ebp), %edx
	movl	%edx, 4(%esp)
	movl	%eax, (%esp)
	call	__Z15ConvertToStringIjESsT_
LEHE200:
	subl	$4, %esp
	leal	-312(%ebp), %eax
	leal	-308(%ebp), %edx
	movl	%edx, 8(%esp)
	movl	$LC55, 4(%esp)
	movl	%eax, (%esp)
LEHB201:
	call	__ZStplIcSt11char_traitsIcESaIcEESbIT_T0_T1_EPKS3_RKS6_
LEHE201:
	subl	$4, %esp
	leal	-316(%ebp), %eax
	movl	$LC36, 8(%esp)
	leal	-312(%ebp), %edx
	movl	%edx, 4(%esp)
	movl	%eax, (%esp)
LEHB202:
	call	__ZStplIcSt11char_traitsIcESaIcEESbIT_T0_T1_ERKS6_PKS3_
LEHE202:
	subl	$4, %esp
	leal	-316(%ebp), %eax
	movl	%eax, (%esp)
LEHB203:
	call	__Z12ProcessErrorRKSs
LEHE203:
	leal	-316(%ebp), %eax
	movl	%eax, (%esp)
LEHB204:
	call	__ZNSsD1Ev
LEHE204:
	leal	-312(%ebp), %eax
	movl	%eax, (%esp)
LEHB205:
	call	__ZNSsD1Ev
LEHE205:
	leal	-308(%ebp), %eax
	movl	%eax, (%esp)
LEHB206:
	call	__ZNSsD1Ev
L338:
	leal	-420(%ebp), %eax
	movl	%eax, (%esp)
	call	__ZNSt4listISsSaISsEE4backEv
	movl	%eax, 4(%esp)
	leal	-436(%ebp), %eax
	movl	%eax, (%esp)
	call	__ZNSsC1ERKSs
LEHE206:
	movl	$LC56, 4(%esp)
	leal	-436(%ebp), %eax
	movl	%eax, (%esp)
LEHB207:
	call	__ZStneIcSt11char_traitsIcESaIcEEbRKSbIT_T0_T1_EPKS3_
	testb	%al, %al
	je	L339
	leal	-440(%ebp), %eax
	leal	-436(%ebp), %edx
	movl	%edx, 4(%esp)
	movl	%eax, (%esp)
	call	__Z24GetSubprogramNameByAliasRKSs
LEHE207:
	subl	$4, %esp
	leal	-440(%ebp), %eax
	movl	%eax, 4(%esp)
	leal	-292(%ebp), %eax
	movl	%eax, (%esp)
LEHB208:
	call	__ZNSsC1ERKSs
LEHE208:
	leal	-281(%ebp), %eax
	movl	%eax, (%esp)
	call	__ZNSaIcEC1Ev
	leal	-281(%ebp), %eax
	movl	%eax, 8(%esp)
	movl	$LC57, 4(%esp)
	leal	-288(%ebp), %eax
	movl	%eax, (%esp)
LEHB209:
	call	__ZNSsC1EPKcRKSaIcE
LEHE209:
	movl	24(%ebp), %eax
	movl	%eax, 12(%esp)
	leal	-292(%ebp), %eax
	movl	%eax, 8(%esp)
	leal	-288(%ebp), %eax
	movl	%eax, 4(%esp)
	leal	-304(%ebp), %eax
	movl	%eax, (%esp)
LEHB210:
	call	__ZN16ByteCodeMnemonicC1ESsSsj
LEHE210:
	movl	8(%ebp), %eax
	leal	-304(%ebp), %edx
	movl	%edx, 4(%esp)
	movl	%eax, (%esp)
LEHB211:
	call	__ZNSt4listI16ByteCodeMnemonicSaIS0_EE9push_backERKS0_
LEHE211:
	leal	-304(%ebp), %eax
	movl	%eax, (%esp)
LEHB212:
	call	__ZN16ByteCodeMnemonicD1Ev
LEHE212:
	leal	-288(%ebp), %eax
	movl	%eax, (%esp)
LEHB213:
	call	__ZNSsD1Ev
LEHE213:
	leal	-281(%ebp), %eax
	movl	%eax, (%esp)
	call	__ZNSaIcED1Ev
	leal	-292(%ebp), %eax
	movl	%eax, (%esp)
LEHB214:
	call	__ZNSsD1Ev
	leal	-420(%ebp), %eax
	movl	%eax, (%esp)
	call	__ZNSt4listISsSaISsEE8pop_backEv
	movb	$0, -10(%ebp)
	leal	-436(%ebp), %eax
	movl	%eax, (%esp)
	call	__Z10IsOperatorRKSs
	xorl	$1, %eax
	testb	%al, %al
	je	L340
	leal	-440(%ebp), %eax
	movl	%eax, 4(%esp)
	movl	16(%ebp), %eax
	movl	%eax, (%esp)
	call	__ZNKSt3mapISsjSt4lessISsESaISt4pairIKSsjEEE5countERS3_
LEHE214:
	cmpl	$1, %eax
	jne	L340
	movb	$1, %al
	jmp	L341
L340:
	movb	$0, %al
L341:
	testb	%al, %al
	je	L342
	incl	-16(%ebp)
	movl	8(%ebp), %eax
	movb	8(%eax), %al
	movb	%al, %dl
	andl	$-3, %edx
	movl	8(%ebp), %eax
	movb	%dl, 8(%eax)
	jmp	L343
L342:
	movl	8(%ebp), %eax
	movb	8(%eax), %al
	movb	%al, %dl
	orl	$2, %edx
	movl	8(%ebp), %eax
	movb	%dl, 8(%eax)
	movb	$1, -9(%ebp)
L343:
	leal	-440(%ebp), %eax
	movl	%eax, (%esp)
LEHB215:
	call	__ZNSsD1Ev
LEHE215:
	jmp	L556
L339:
	movl	$0, %ebx
	jmp	L345
L556:
	movl	$1, %ebx
L345:
	leal	-436(%ebp), %eax
	movl	%eax, (%esp)
LEHB216:
	call	__ZNSsD1Ev
	cmpl	$1, %ebx
	je	L560
	leal	-512(%ebp), %eax
	movl	%eax, (%esp)
	call	__ZNKSt5stackIjSt5dequeIjSaIjEEE5emptyEv
	xorl	$1, %eax
	testb	%al, %al
	je	L349
	cmpb	$0, -9(%ebp)
	je	L330
	leal	-512(%ebp), %eax
	movl	%eax, (%esp)
	call	__ZNSt5stackIjSt5dequeIjSaIjEEE3topEv
	movl	(%eax), %edx
	incl	%edx
	movl	%edx, (%eax)
	movb	$0, -9(%ebp)
	jmp	L330
L349:
	leal	-272(%ebp), %eax
	movl	24(%ebp), %edx
	movl	%edx, 4(%esp)
	movl	%eax, (%esp)
	call	__Z15ConvertToStringIjESsT_
LEHE216:
	subl	$4, %esp
	leal	-276(%ebp), %eax
	leal	-272(%ebp), %edx
	movl	%edx, 8(%esp)
	movl	$LC58, 4(%esp)
	movl	%eax, (%esp)
LEHB217:
	call	__ZStplIcSt11char_traitsIcESaIcEESbIT_T0_T1_EPKS3_RKS6_
LEHE217:
	subl	$4, %esp
	leal	-280(%ebp), %eax
	movl	$LC36, 8(%esp)
	leal	-276(%ebp), %edx
	movl	%edx, 4(%esp)
	movl	%eax, (%esp)
LEHB218:
	call	__ZStplIcSt11char_traitsIcESaIcEESbIT_T0_T1_ERKS6_PKS3_
LEHE218:
	subl	$4, %esp
	leal	-280(%ebp), %eax
	movl	%eax, (%esp)
LEHB219:
	call	__Z12ProcessErrorRKSs
LEHE219:
	leal	-280(%ebp), %eax
	movl	%eax, (%esp)
LEHB220:
	call	__ZNSsD1Ev
LEHE220:
	leal	-276(%ebp), %eax
	movl	%eax, (%esp)
LEHB221:
	call	__ZNSsD1Ev
LEHE221:
	leal	-272(%ebp), %eax
	movl	%eax, (%esp)
LEHB222:
	call	__ZNSsD1Ev
	jmp	L330
L337:
	leal	-428(%ebp), %eax
	movl	%eax, (%esp)
	call	__Z10IsOperatorRKSs
	testb	%al, %al
	je	L350
	jmp	L366
L562:
	nop
L366:
	leal	-420(%ebp), %eax
	movl	%eax, (%esp)
	call	__ZNKSt4listISsSaISsEE5emptyEv
	testb	%al, %al
	jne	L561
L351:
	leal	-420(%ebp), %eax
	movl	%eax, (%esp)
	call	__ZNSt4listISsSaISsEE4backEv
	movl	%eax, 4(%esp)
	leal	-444(%ebp), %eax
	movl	%eax, (%esp)
	call	__ZNSsC1ERKSs
LEHE222:
	leal	-444(%ebp), %eax
	movl	%eax, (%esp)
LEHB223:
	call	__Z10IsOperatorRKSs
	xorl	$1, %eax
	testb	%al, %al
	je	L353
	movl	$0, %ebx
	jmp	L354
L353:
	leal	-428(%ebp), %eax
	movl	%eax, (%esp)
	call	__Z16GetAssociativityRKSs
	testl	%eax, %eax
	jne	L355
	leal	-428(%ebp), %eax
	movl	%eax, (%esp)
	call	__Z13GetPrecedenceRKSs
	movl	%eax, %ebx
	leal	-444(%ebp), %eax
	movl	%eax, (%esp)
	call	__Z13GetPrecedenceRKSs
	cmpl	%eax, %ebx
	jbe	L356
L355:
	leal	-428(%ebp), %eax
	movl	%eax, (%esp)
	call	__Z16GetAssociativityRKSs
	cmpl	$1, %eax
	jne	L357
	leal	-428(%ebp), %eax
	movl	%eax, (%esp)
	call	__Z13GetPrecedenceRKSs
	movl	%eax, %ebx
	leal	-444(%ebp), %eax
	movl	%eax, (%esp)
	call	__Z13GetPrecedenceRKSs
	cmpl	%eax, %ebx
	jae	L357
L356:
	movb	$1, %al
	jmp	L358
L357:
	movb	$0, %al
L358:
	testb	%al, %al
	je	L359
	leal	-448(%ebp), %eax
	leal	-444(%ebp), %edx
	movl	%edx, 4(%esp)
	movl	%eax, (%esp)
	call	__Z24GetSubprogramNameByAliasRKSs
LEHE223:
	subl	$4, %esp
	leal	-448(%ebp), %eax
	movl	%eax, 4(%esp)
	leal	-256(%ebp), %eax
	movl	%eax, (%esp)
LEHB224:
	call	__ZNSsC1ERKSs
LEHE224:
	leal	-245(%ebp), %eax
	movl	%eax, (%esp)
	call	__ZNSaIcEC1Ev
	leal	-245(%ebp), %eax
	movl	%eax, 8(%esp)
	movl	$LC57, 4(%esp)
	leal	-252(%ebp), %eax
	movl	%eax, (%esp)
LEHB225:
	call	__ZNSsC1EPKcRKSaIcE
LEHE225:
	movl	24(%ebp), %eax
	movl	%eax, 12(%esp)
	leal	-256(%ebp), %eax
	movl	%eax, 8(%esp)
	leal	-252(%ebp), %eax
	movl	%eax, 4(%esp)
	leal	-268(%ebp), %eax
	movl	%eax, (%esp)
LEHB226:
	call	__ZN16ByteCodeMnemonicC1ESsSsj
LEHE226:
	movl	8(%ebp), %eax
	leal	-268(%ebp), %edx
	movl	%edx, 4(%esp)
	movl	%eax, (%esp)
LEHB227:
	call	__ZNSt4listI16ByteCodeMnemonicSaIS0_EE9push_backERKS0_
LEHE227:
	leal	-268(%ebp), %eax
	movl	%eax, (%esp)
LEHB228:
	call	__ZN16ByteCodeMnemonicD1Ev
LEHE228:
	leal	-252(%ebp), %eax
	movl	%eax, (%esp)
LEHB229:
	call	__ZNSsD1Ev
LEHE229:
	leal	-245(%ebp), %eax
	movl	%eax, (%esp)
	call	__ZNSaIcED1Ev
	leal	-256(%ebp), %eax
	movl	%eax, (%esp)
LEHB230:
	call	__ZNSsD1Ev
	leal	-420(%ebp), %eax
	movl	%eax, (%esp)
	call	__ZNSt4listISsSaISsEE8pop_backEv
	movb	$0, -10(%ebp)
	leal	-444(%ebp), %eax
	movl	%eax, (%esp)
	call	__Z10IsOperatorRKSs
	xorl	$1, %eax
	testb	%al, %al
	je	L360
	leal	-448(%ebp), %eax
	movl	%eax, 4(%esp)
	movl	16(%ebp), %eax
	movl	%eax, (%esp)
	call	__ZNKSt3mapISsjSt4lessISsESaISt4pairIKSsjEEE5countERS3_
LEHE230:
	cmpl	$1, %eax
	jne	L360
	movb	$1, %al
	jmp	L361
L360:
	movb	$0, %al
L361:
	testb	%al, %al
	je	L362
	incl	-16(%ebp)
	movl	8(%ebp), %eax
	movb	8(%eax), %al
	movb	%al, %dl
	andl	$-3, %edx
	movl	8(%ebp), %eax
	movb	%dl, 8(%eax)
	jmp	L363
L362:
	movl	8(%ebp), %eax
	movb	8(%eax), %al
	movb	%al, %dl
	orl	$2, %edx
	movl	8(%ebp), %eax
	movb	%dl, 8(%eax)
	movb	$1, -9(%ebp)
L363:
	leal	-448(%ebp), %eax
	movl	%eax, (%esp)
LEHB231:
	call	__ZNSsD1Ev
LEHE231:
	jmp	L557
L359:
	movl	$0, %ebx
	jmp	L354
L557:
	movl	$1, %ebx
L354:
	leal	-444(%ebp), %eax
	movl	%eax, (%esp)
LEHB232:
	call	__ZNSsD1Ev
	cmpl	$1, %ebx
	je	L562
	jmp	L352
L561:
	nop
L352:
	leal	-428(%ebp), %eax
	movl	%eax, 4(%esp)
	leal	-420(%ebp), %eax
	movl	%eax, (%esp)
	call	__ZNSt4listISsSaISsEE9push_backERKSs
	jmp	L330
L350:
	movl	$LC56, 4(%esp)
	leal	-428(%ebp), %eax
	movl	%eax, (%esp)
	call	__ZSteqIcSt11char_traitsIcESaIcEEbRKSbIT_T0_T1_EPKS3_
	testb	%al, %al
	je	L367
	leal	-428(%ebp), %eax
	movl	%eax, 4(%esp)
	leal	-420(%ebp), %eax
	movl	%eax, (%esp)
	call	__ZNSt4listISsSaISsEE9push_backERKSs
	jmp	L330
L367:
	movl	$LC59, 4(%esp)
	leal	-428(%ebp), %eax
	movl	%eax, (%esp)
	call	__ZSteqIcSt11char_traitsIcESaIcEEbRKSbIT_T0_T1_EPKS3_
	testb	%al, %al
	je	L368
	jmp	L379
L563:
	nop
L379:
	leal	-420(%ebp), %eax
	movl	%eax, (%esp)
	call	__ZNKSt4listISsSaISsEE5emptyEv
	testb	%al, %al
	je	L369
	leal	-236(%ebp), %eax
	movl	24(%ebp), %edx
	movl	%edx, 4(%esp)
	movl	%eax, (%esp)
	call	__Z15ConvertToStringIjESsT_
LEHE232:
	subl	$4, %esp
	leal	-240(%ebp), %eax
	leal	-236(%ebp), %edx
	movl	%edx, 8(%esp)
	movl	$LC60, 4(%esp)
	movl	%eax, (%esp)
LEHB233:
	call	__ZStplIcSt11char_traitsIcESaIcEESbIT_T0_T1_EPKS3_RKS6_
LEHE233:
	subl	$4, %esp
	leal	-244(%ebp), %eax
	movl	$LC36, 8(%esp)
	leal	-240(%ebp), %edx
	movl	%edx, 4(%esp)
	movl	%eax, (%esp)
LEHB234:
	call	__ZStplIcSt11char_traitsIcESaIcEESbIT_T0_T1_ERKS6_PKS3_
LEHE234:
	subl	$4, %esp
	leal	-244(%ebp), %eax
	movl	%eax, (%esp)
LEHB235:
	call	__Z12ProcessErrorRKSs
LEHE235:
	leal	-244(%ebp), %eax
	movl	%eax, (%esp)
LEHB236:
	call	__ZNSsD1Ev
LEHE236:
	leal	-240(%ebp), %eax
	movl	%eax, (%esp)
LEHB237:
	call	__ZNSsD1Ev
LEHE237:
	leal	-236(%ebp), %eax
	movl	%eax, (%esp)
LEHB238:
	call	__ZNSsD1Ev
L369:
	leal	-420(%ebp), %eax
	movl	%eax, (%esp)
	call	__ZNSt4listISsSaISsEE4backEv
	movl	%eax, 4(%esp)
	leal	-452(%ebp), %eax
	movl	%eax, (%esp)
	call	__ZNSsC1ERKSs
LEHE238:
	leal	-420(%ebp), %eax
	movl	%eax, (%esp)
LEHB239:
	call	__ZNSt4listISsSaISsEE8pop_backEv
	movl	$LC56, 4(%esp)
	leal	-452(%ebp), %eax
	movl	%eax, (%esp)
	call	__ZStneIcSt11char_traitsIcESaIcEEbRKSbIT_T0_T1_EPKS3_
	testb	%al, %al
	je	L370
	leal	-456(%ebp), %eax
	leal	-452(%ebp), %edx
	movl	%edx, 4(%esp)
	movl	%eax, (%esp)
	call	__Z24GetSubprogramNameByAliasRKSs
LEHE239:
	subl	$4, %esp
	leal	-456(%ebp), %eax
	movl	%eax, 4(%esp)
	leal	-220(%ebp), %eax
	movl	%eax, (%esp)
LEHB240:
	call	__ZNSsC1ERKSs
LEHE240:
	leal	-209(%ebp), %eax
	movl	%eax, (%esp)
	call	__ZNSaIcEC1Ev
	leal	-209(%ebp), %eax
	movl	%eax, 8(%esp)
	movl	$LC57, 4(%esp)
	leal	-216(%ebp), %eax
	movl	%eax, (%esp)
LEHB241:
	call	__ZNSsC1EPKcRKSaIcE
LEHE241:
	movl	24(%ebp), %eax
	movl	%eax, 12(%esp)
	leal	-220(%ebp), %eax
	movl	%eax, 8(%esp)
	leal	-216(%ebp), %eax
	movl	%eax, 4(%esp)
	leal	-232(%ebp), %eax
	movl	%eax, (%esp)
LEHB242:
	call	__ZN16ByteCodeMnemonicC1ESsSsj
LEHE242:
	movl	8(%ebp), %eax
	leal	-232(%ebp), %edx
	movl	%edx, 4(%esp)
	movl	%eax, (%esp)
LEHB243:
	call	__ZNSt4listI16ByteCodeMnemonicSaIS0_EE9push_backERKS0_
LEHE243:
	leal	-232(%ebp), %eax
	movl	%eax, (%esp)
LEHB244:
	call	__ZN16ByteCodeMnemonicD1Ev
LEHE244:
	leal	-216(%ebp), %eax
	movl	%eax, (%esp)
LEHB245:
	call	__ZNSsD1Ev
LEHE245:
	leal	-209(%ebp), %eax
	movl	%eax, (%esp)
	call	__ZNSaIcED1Ev
	leal	-220(%ebp), %eax
	movl	%eax, (%esp)
LEHB246:
	call	__ZNSsD1Ev
	movb	$0, -10(%ebp)
	leal	-452(%ebp), %eax
	movl	%eax, (%esp)
	call	__Z10IsOperatorRKSs
	xorl	$1, %eax
	testb	%al, %al
	je	L371
	leal	-456(%ebp), %eax
	movl	%eax, 4(%esp)
	movl	16(%ebp), %eax
	movl	%eax, (%esp)
	call	__ZNKSt3mapISsjSt4lessISsESaISt4pairIKSsjEEE5countERS3_
LEHE246:
	cmpl	$1, %eax
	jne	L371
	movb	$1, %al
	jmp	L372
L371:
	movb	$0, %al
L372:
	testb	%al, %al
	je	L373
	incl	-16(%ebp)
	movl	8(%ebp), %eax
	movb	8(%eax), %al
	movb	%al, %dl
	andl	$-3, %edx
	movl	8(%ebp), %eax
	movb	%dl, 8(%eax)
	jmp	L374
L373:
	movl	8(%ebp), %eax
	movb	8(%eax), %al
	movb	%al, %dl
	orl	$2, %edx
	movl	8(%ebp), %eax
	movb	%dl, 8(%eax)
	movb	$1, -9(%ebp)
L374:
	leal	-456(%ebp), %eax
	movl	%eax, (%esp)
LEHB247:
	call	__ZNSsD1Ev
LEHE247:
	jmp	L558
L370:
	movl	$0, %ebx
	jmp	L376
L558:
	movl	$1, %ebx
L376:
	leal	-452(%ebp), %eax
	movl	%eax, (%esp)
LEHB248:
	call	__ZNSsD1Ev
	cmpl	$1, %ebx
	je	L563
	leal	-512(%ebp), %eax
	movl	%eax, (%esp)
	call	__ZNKSt5stackIjSt5dequeIjSaIjEEE5emptyEv
	xorl	$1, %eax
	testb	%al, %al
	je	L380
	cmpb	$0, -9(%ebp)
	je	L380
	movb	$1, %al
	jmp	L381
L380:
	movb	$0, %al
L381:
	testb	%al, %al
	je	L382
	leal	-512(%ebp), %eax
	movl	%eax, (%esp)
	call	__ZNSt5stackIjSt5dequeIjSaIjEEE3topEv
	movl	(%eax), %edx
	incl	%edx
	movl	%edx, (%eax)
	movb	$0, -9(%ebp)
L382:
	leal	-420(%ebp), %eax
	movl	%eax, (%esp)
	call	__ZNKSt4listISsSaISsEE5emptyEv
	xorl	$1, %eax
	testb	%al, %al
	je	L330
	leal	-420(%ebp), %eax
	movl	%eax, (%esp)
	call	__ZNSt4listISsSaISsEE4backEv
	movl	%eax, 4(%esp)
	leal	-460(%ebp), %eax
	movl	%eax, (%esp)
	call	__ZNSsC1ERKSs
LEHE248:
	leal	-464(%ebp), %eax
	leal	-460(%ebp), %edx
	movl	%edx, 4(%esp)
	movl	%eax, (%esp)
LEHB249:
	call	__Z24GetSubprogramNameByAliasRKSs
LEHE249:
	subl	$4, %esp
	leal	-460(%ebp), %eax
	movl	%eax, (%esp)
LEHB250:
	call	__Z10IsOperatorRKSs
	xorl	$1, %eax
	testb	%al, %al
	je	L383
	leal	-464(%ebp), %eax
	movl	%eax, 4(%esp)
	movl	16(%ebp), %eax
	movl	%eax, (%esp)
	call	__ZNKSt3mapISsjSt4lessISsESaISt4pairIKSsjEEE5countERS3_
	cmpl	$1, %eax
	je	L384
	leal	-464(%ebp), %eax
	movl	%eax, 4(%esp)
	movl	20(%ebp), %eax
	movl	%eax, (%esp)
	call	__ZNKSt3mapISsjSt4lessISsESaISt4pairIKSsjEEE5countERS3_
	cmpl	$1, %eax
	jne	L383
L384:
	movb	$1, %al
	jmp	L385
L383:
	movb	$0, %al
L385:
	testb	%al, %al
	je	L386
	movl	$0, -20(%ebp)
	leal	-464(%ebp), %eax
	movl	%eax, 4(%esp)
	movl	16(%ebp), %eax
	movl	%eax, (%esp)
	call	__ZNKSt3mapISsjSt4lessISsESaISt4pairIKSsjEEE5countERS3_
	cmpl	$1, %eax
	sete	%al
	testb	%al, %al
	je	L387
	leal	-464(%ebp), %eax
	movl	%eax, 4(%esp)
	movl	16(%ebp), %eax
	movl	%eax, (%esp)
	call	__ZNKSt3mapISsjSt4lessISsESaISt4pairIKSsjEEE4findERS3_
	movl	%eax, -208(%ebp)
	leal	-208(%ebp), %eax
	movl	%eax, (%esp)
	call	__ZNKSt23_Rb_tree_const_iteratorISt4pairIKSsjEEptEv
	movl	4(%eax), %eax
	movl	%eax, -20(%ebp)
	jmp	L388
L387:
	leal	-464(%ebp), %eax
	movl	%eax, 4(%esp)
	movl	20(%ebp), %eax
	movl	%eax, (%esp)
	call	__ZNKSt3mapISsjSt4lessISsESaISt4pairIKSsjEEE5countERS3_
	cmpl	$1, %eax
	sete	%al
	testb	%al, %al
	je	L388
	leal	-464(%ebp), %eax
	movl	%eax, 4(%esp)
	movl	20(%ebp), %eax
	movl	%eax, (%esp)
	call	__ZNSt3mapISsjSt4lessISsESaISt4pairIKSsjEEE4findERS3_
	movl	%eax, -204(%ebp)
	leal	-204(%ebp), %eax
	movl	%eax, (%esp)
	call	__ZNKSt17_Rb_tree_iteratorISt4pairIKSsjEEptEv
	movl	4(%eax), %eax
	movl	%eax, -20(%ebp)
L388:
	leal	-512(%ebp), %eax
	movl	%eax, (%esp)
	call	__ZNSt5stackIjSt5dequeIjSaIjEEE3topEv
	movl	(%eax), %eax
	movl	%eax, -24(%ebp)
	movl	-24(%ebp), %eax
	cmpl	-20(%ebp), %eax
	je	L389
	leal	-192(%ebp), %eax
	movl	24(%ebp), %edx
	movl	%edx, 4(%esp)
	movl	%eax, (%esp)
	call	__Z15ConvertToStringIjESsT_
LEHE250:
	subl	$4, %esp
	leal	-180(%ebp), %eax
	movl	-24(%ebp), %edx
	movl	%edx, 4(%esp)
	movl	%eax, (%esp)
LEHB251:
	call	__Z15ConvertToStringIjESsT_
LEHE251:
	subl	$4, %esp
	cmpl	$1, -20(%ebp)
	je	L390
	movl	$LC61, %ebx
	jmp	L391
L390:
	movl	$LC62, %ebx
L391:
	leal	-160(%ebp), %eax
	movl	-20(%ebp), %edx
	movl	%edx, 4(%esp)
	movl	%eax, (%esp)
LEHB252:
	call	__Z15ConvertToStringIjESsT_
LEHE252:
	subl	$4, %esp
	leal	-152(%ebp), %eax
	leal	-460(%ebp), %edx
	movl	%edx, 8(%esp)
	movl	$LC63, 4(%esp)
	movl	%eax, (%esp)
LEHB253:
	call	__ZStplIcSt11char_traitsIcESaIcEESbIT_T0_T1_EPKS3_RKS6_
LEHE253:
	subl	$4, %esp
	leal	-156(%ebp), %eax
	movl	$LC64, 8(%esp)
	leal	-152(%ebp), %edx
	movl	%edx, 4(%esp)
	movl	%eax, (%esp)
LEHB254:
	call	__ZStplIcSt11char_traitsIcESaIcEESbIT_T0_T1_ERKS6_PKS3_
LEHE254:
	subl	$4, %esp
	leal	-164(%ebp), %eax
	leal	-160(%ebp), %edx
	movl	%edx, 8(%esp)
	leal	-156(%ebp), %edx
	movl	%edx, 4(%esp)
	movl	%eax, (%esp)
LEHB255:
	call	__ZStplIcSt11char_traitsIcESaIcEESbIT_T0_T1_ERKS6_S8_
LEHE255:
	subl	$4, %esp
	leal	-168(%ebp), %eax
	movl	$LC65, 8(%esp)
	leal	-164(%ebp), %edx
	movl	%edx, 4(%esp)
	movl	%eax, (%esp)
LEHB256:
	call	__ZStplIcSt11char_traitsIcESaIcEESbIT_T0_T1_ERKS6_PKS3_
LEHE256:
	subl	$4, %esp
	leal	-172(%ebp), %eax
	movl	%ebx, 8(%esp)
	leal	-168(%ebp), %edx
	movl	%edx, 4(%esp)
	movl	%eax, (%esp)
LEHB257:
	call	__ZStplIcSt11char_traitsIcESaIcEESbIT_T0_T1_ERKS6_PKS3_
LEHE257:
	subl	$4, %esp
	leal	-176(%ebp), %eax
	movl	$LC66, 8(%esp)
	leal	-172(%ebp), %edx
	movl	%edx, 4(%esp)
	movl	%eax, (%esp)
LEHB258:
	call	__ZStplIcSt11char_traitsIcESaIcEESbIT_T0_T1_ERKS6_PKS3_
LEHE258:
	subl	$4, %esp
	leal	-184(%ebp), %eax
	leal	-180(%ebp), %edx
	movl	%edx, 8(%esp)
	leal	-176(%ebp), %edx
	movl	%edx, 4(%esp)
	movl	%eax, (%esp)
LEHB259:
	call	__ZStplIcSt11char_traitsIcESaIcEESbIT_T0_T1_ERKS6_S8_
LEHE259:
	subl	$4, %esp
	leal	-188(%ebp), %eax
	movl	$LC67, 8(%esp)
	leal	-184(%ebp), %edx
	movl	%edx, 4(%esp)
	movl	%eax, (%esp)
LEHB260:
	call	__ZStplIcSt11char_traitsIcESaIcEESbIT_T0_T1_ERKS6_PKS3_
LEHE260:
	subl	$4, %esp
	leal	-196(%ebp), %eax
	leal	-192(%ebp), %edx
	movl	%edx, 8(%esp)
	leal	-188(%ebp), %edx
	movl	%edx, 4(%esp)
	movl	%eax, (%esp)
LEHB261:
	call	__ZStplIcSt11char_traitsIcESaIcEESbIT_T0_T1_ERKS6_S8_
LEHE261:
	subl	$4, %esp
	leal	-200(%ebp), %eax
	movl	$LC36, 8(%esp)
	leal	-196(%ebp), %edx
	movl	%edx, 4(%esp)
	movl	%eax, (%esp)
LEHB262:
	call	__ZStplIcSt11char_traitsIcESaIcEESbIT_T0_T1_ERKS6_PKS3_
LEHE262:
	subl	$4, %esp
	leal	-200(%ebp), %eax
	movl	%eax, (%esp)
LEHB263:
	call	__Z12ProcessErrorRKSs
LEHE263:
	leal	-200(%ebp), %eax
	movl	%eax, (%esp)
LEHB264:
	call	__ZNSsD1Ev
LEHE264:
	leal	-196(%ebp), %eax
	movl	%eax, (%esp)
LEHB265:
	call	__ZNSsD1Ev
LEHE265:
	leal	-188(%ebp), %eax
	movl	%eax, (%esp)
LEHB266:
	call	__ZNSsD1Ev
LEHE266:
	leal	-184(%ebp), %eax
	movl	%eax, (%esp)
LEHB267:
	call	__ZNSsD1Ev
LEHE267:
	leal	-176(%ebp), %eax
	movl	%eax, (%esp)
LEHB268:
	call	__ZNSsD1Ev
LEHE268:
	leal	-172(%ebp), %eax
	movl	%eax, (%esp)
LEHB269:
	call	__ZNSsD1Ev
LEHE269:
	leal	-168(%ebp), %eax
	movl	%eax, (%esp)
LEHB270:
	call	__ZNSsD1Ev
LEHE270:
	leal	-164(%ebp), %eax
	movl	%eax, (%esp)
LEHB271:
	call	__ZNSsD1Ev
LEHE271:
	leal	-156(%ebp), %eax
	movl	%eax, (%esp)
LEHB272:
	call	__ZNSsD1Ev
LEHE272:
	leal	-152(%ebp), %eax
	movl	%eax, (%esp)
LEHB273:
	call	__ZNSsD1Ev
LEHE273:
	leal	-160(%ebp), %eax
	movl	%eax, (%esp)
LEHB274:
	call	__ZNSsD1Ev
LEHE274:
	leal	-180(%ebp), %eax
	movl	%eax, (%esp)
LEHB275:
	call	__ZNSsD1Ev
LEHE275:
	leal	-192(%ebp), %eax
	movl	%eax, (%esp)
LEHB276:
	call	__ZNSsD1Ev
L389:
	movl	$LC68, 4(%esp)
	leal	-464(%ebp), %eax
	movl	%eax, (%esp)
	call	__ZStneIcSt11char_traitsIcESaIcEEbRKSbIT_T0_T1_EPKS3_
	testb	%al, %al
	je	L392
	leal	-464(%ebp), %eax
	movl	%eax, 4(%esp)
	leal	-136(%ebp), %eax
	movl	%eax, (%esp)
	call	__ZNSsC1ERKSs
LEHE276:
	leal	-125(%ebp), %eax
	movl	%eax, (%esp)
	call	__ZNSaIcEC1Ev
	leal	-125(%ebp), %eax
	movl	%eax, 8(%esp)
	movl	$LC57, 4(%esp)
	leal	-132(%ebp), %eax
	movl	%eax, (%esp)
LEHB277:
	call	__ZNSsC1EPKcRKSaIcE
LEHE277:
	movl	24(%ebp), %eax
	movl	%eax, 12(%esp)
	leal	-136(%ebp), %eax
	movl	%eax, 8(%esp)
	leal	-132(%ebp), %eax
	movl	%eax, 4(%esp)
	leal	-148(%ebp), %eax
	movl	%eax, (%esp)
LEHB278:
	call	__ZN16ByteCodeMnemonicC1ESsSsj
LEHE278:
	movl	8(%ebp), %eax
	leal	-148(%ebp), %edx
	movl	%edx, 4(%esp)
	movl	%eax, (%esp)
LEHB279:
	call	__ZNSt4listI16ByteCodeMnemonicSaIS0_EE9push_backERKS0_
LEHE279:
	leal	-148(%ebp), %eax
	movl	%eax, (%esp)
LEHB280:
	call	__ZN16ByteCodeMnemonicD1Ev
LEHE280:
	leal	-132(%ebp), %eax
	movl	%eax, (%esp)
LEHB281:
	call	__ZNSsD1Ev
LEHE281:
	leal	-125(%ebp), %eax
	movl	%eax, (%esp)
	call	__ZNSaIcED1Ev
	leal	-136(%ebp), %eax
	movl	%eax, (%esp)
LEHB282:
	call	__ZNSsD1Ev
	movb	$0, -10(%ebp)
	leal	-464(%ebp), %eax
	movl	%eax, 4(%esp)
	movl	16(%ebp), %eax
	movl	%eax, (%esp)
	call	__ZNKSt3mapISsjSt4lessISsESaISt4pairIKSsjEEE5countERS3_
LEHE282:
	cmpl	$1, %eax
	sete	%al
	testb	%al, %al
	je	L393
	incl	-16(%ebp)
	movl	8(%ebp), %eax
	movb	8(%eax), %al
	movb	%al, %dl
	andl	$-3, %edx
	movl	8(%ebp), %eax
	movb	%dl, 8(%eax)
	jmp	L394
L393:
	movl	8(%ebp), %eax
	movb	8(%eax), %al
	movb	%al, %dl
	orl	$2, %edx
	movl	8(%ebp), %eax
	movb	%dl, 8(%eax)
	movb	$1, -9(%ebp)
	jmp	L394
L392:
	leal	-105(%ebp), %eax
	movl	%eax, (%esp)
	call	__ZNSaIcEC1Ev
	leal	-105(%ebp), %eax
	movl	%eax, 8(%esp)
	movl	$LC69, 4(%esp)
	leal	-112(%ebp), %eax
	movl	%eax, (%esp)
LEHB283:
	call	__ZNSsC1EPKcRKSaIcE
LEHE283:
	movl	24(%ebp), %eax
	movl	%eax, 8(%esp)
	leal	-112(%ebp), %eax
	movl	%eax, 4(%esp)
	leal	-124(%ebp), %eax
	movl	%eax, (%esp)
LEHB284:
	call	__ZN16ByteCodeMnemonicC1ESsj
LEHE284:
	movl	8(%ebp), %eax
	leal	-124(%ebp), %edx
	movl	%edx, 4(%esp)
	movl	%eax, (%esp)
LEHB285:
	call	__ZNSt4listI16ByteCodeMnemonicSaIS0_EE9push_backERKS0_
LEHE285:
	leal	-124(%ebp), %eax
	movl	%eax, (%esp)
LEHB286:
	call	__ZN16ByteCodeMnemonicD1Ev
LEHE286:
	leal	-112(%ebp), %eax
	movl	%eax, (%esp)
LEHB287:
	call	__ZNSsD1Ev
LEHE287:
	leal	-105(%ebp), %eax
	movl	%eax, (%esp)
	call	__ZNSaIcED1Ev
	movl	8(%ebp), %eax
	movb	8(%eax), %al
	movb	%al, %dl
	orl	$1, %edx
	movl	8(%ebp), %eax
	movb	%dl, 8(%eax)
	movb	$1, -10(%ebp)
	movl	8(%ebp), %eax
	movb	8(%eax), %al
	movb	%al, %dl
	orl	$2, %edx
	movl	8(%ebp), %eax
	movb	%dl, 8(%eax)
	movb	$1, -9(%ebp)
L394:
	leal	-420(%ebp), %eax
	movl	%eax, (%esp)
LEHB288:
	call	__ZNSt4listISsSaISsEE8pop_backEv
	leal	-512(%ebp), %eax
	movl	%eax, (%esp)
	call	__ZNSt5stackIjSt5dequeIjSaIjEEE3popEv
LEHE288:
L386:
	leal	-464(%ebp), %eax
	movl	%eax, (%esp)
LEHB289:
	call	__ZNSsD1Ev
LEHE289:
	leal	-460(%ebp), %eax
	movl	%eax, (%esp)
LEHB290:
	call	__ZNSsD1Ev
	jmp	L330
L368:
	leal	-96(%ebp), %eax
	movl	24(%ebp), %edx
	movl	%edx, 4(%esp)
	movl	%eax, (%esp)
	call	__Z15ConvertToStringIjESsT_
LEHE290:
	subl	$4, %esp
	leal	-88(%ebp), %eax
	leal	-428(%ebp), %edx
	movl	%edx, 8(%esp)
	movl	$LC70, 4(%esp)
	movl	%eax, (%esp)
LEHB291:
	call	__ZStplIcSt11char_traitsIcESaIcEESbIT_T0_T1_EPKS3_RKS6_
LEHE291:
	subl	$4, %esp
	leal	-92(%ebp), %eax
	movl	$LC71, 8(%esp)
	leal	-88(%ebp), %edx
	movl	%edx, 4(%esp)
	movl	%eax, (%esp)
LEHB292:
	call	__ZStplIcSt11char_traitsIcESaIcEESbIT_T0_T1_ERKS6_PKS3_
LEHE292:
	subl	$4, %esp
	leal	-100(%ebp), %eax
	leal	-96(%ebp), %edx
	movl	%edx, 8(%esp)
	leal	-92(%ebp), %edx
	movl	%edx, 4(%esp)
	movl	%eax, (%esp)
LEHB293:
	call	__ZStplIcSt11char_traitsIcESaIcEESbIT_T0_T1_ERKS6_S8_
LEHE293:
	subl	$4, %esp
	leal	-104(%ebp), %eax
	movl	$LC36, 8(%esp)
	leal	-100(%ebp), %edx
	movl	%edx, 4(%esp)
	movl	%eax, (%esp)
LEHB294:
	call	__ZStplIcSt11char_traitsIcESaIcEESbIT_T0_T1_ERKS6_PKS3_
LEHE294:
	subl	$4, %esp
	leal	-104(%ebp), %eax
	movl	%eax, (%esp)
LEHB295:
	call	__Z12ProcessErrorRKSs
LEHE295:
	leal	-104(%ebp), %eax
	movl	%eax, (%esp)
LEHB296:
	call	__ZNSsD1Ev
LEHE296:
	leal	-100(%ebp), %eax
	movl	%eax, (%esp)
LEHB297:
	call	__ZNSsD1Ev
LEHE297:
	leal	-92(%ebp), %eax
	movl	%eax, (%esp)
LEHB298:
	call	__ZNSsD1Ev
LEHE298:
	leal	-88(%ebp), %eax
	movl	%eax, (%esp)
LEHB299:
	call	__ZNSsD1Ev
LEHE299:
	leal	-96(%ebp), %eax
	movl	%eax, (%esp)
LEHB300:
	call	__ZNSsD1Ev
LEHE300:
L330:
	leal	-428(%ebp), %eax
	movl	%eax, (%esp)
LEHB301:
	call	__ZNSsD1Ev
	leal	-424(%ebp), %eax
	movl	%eax, (%esp)
	call	__ZNSt20_List_const_iteratorISsEppEv
L328:
	movl	12(%ebp), %eax
	movl	%eax, (%esp)
	call	__ZNKSt4listISsSaISsEE3endEv
	movl	%eax, -372(%ebp)
	leal	-372(%ebp), %eax
	movl	%eax, 4(%esp)
	leal	-424(%ebp), %eax
	movl	%eax, (%esp)
	call	__ZNKSt20_List_const_iteratorISsEneERKS0_
	testb	%al, %al
	jne	L395
	jmp	L396
L400:
	leal	-420(%ebp), %eax
	movl	%eax, (%esp)
	call	__ZNSt4listISsSaISsEE4backEv
	movl	%eax, 4(%esp)
	leal	-468(%ebp), %eax
	movl	%eax, (%esp)
	call	__ZNSsC1ERKSs
LEHE301:
	movl	$LC56, 4(%esp)
	leal	-468(%ebp), %eax
	movl	%eax, (%esp)
LEHB302:
	call	__ZSteqIcSt11char_traitsIcESaIcEEbRKSbIT_T0_T1_EPKS3_
	testb	%al, %al
	je	L397
	leal	-76(%ebp), %eax
	movl	24(%ebp), %edx
	movl	%edx, 4(%esp)
	movl	%eax, (%esp)
	call	__Z15ConvertToStringIjESsT_
LEHE302:
	subl	$4, %esp
	leal	-80(%ebp), %eax
	leal	-76(%ebp), %edx
	movl	%edx, 8(%esp)
	movl	$LC72, 4(%esp)
	movl	%eax, (%esp)
LEHB303:
	call	__ZStplIcSt11char_traitsIcESaIcEESbIT_T0_T1_EPKS3_RKS6_
LEHE303:
	subl	$4, %esp
	leal	-84(%ebp), %eax
	movl	$LC36, 8(%esp)
	leal	-80(%ebp), %edx
	movl	%edx, 4(%esp)
	movl	%eax, (%esp)
LEHB304:
	call	__ZStplIcSt11char_traitsIcESaIcEESbIT_T0_T1_ERKS6_PKS3_
LEHE304:
	subl	$4, %esp
	leal	-84(%ebp), %eax
	movl	%eax, (%esp)
LEHB305:
	call	__Z12ProcessErrorRKSs
LEHE305:
	leal	-84(%ebp), %eax
	movl	%eax, (%esp)
LEHB306:
	call	__ZNSsD1Ev
LEHE306:
	leal	-80(%ebp), %eax
	movl	%eax, (%esp)
LEHB307:
	call	__ZNSsD1Ev
LEHE307:
	leal	-76(%ebp), %eax
	movl	%eax, (%esp)
LEHB308:
	call	__ZNSsD1Ev
L397:
	leal	-472(%ebp), %eax
	leal	-468(%ebp), %edx
	movl	%edx, 4(%esp)
	movl	%eax, (%esp)
	call	__Z24GetSubprogramNameByAliasRKSs
LEHE308:
	subl	$4, %esp
	leal	-472(%ebp), %eax
	movl	%eax, 4(%esp)
	leal	-60(%ebp), %eax
	movl	%eax, (%esp)
LEHB309:
	call	__ZNSsC1ERKSs
LEHE309:
	leal	-49(%ebp), %eax
	movl	%eax, (%esp)
	call	__ZNSaIcEC1Ev
	leal	-49(%ebp), %eax
	movl	%eax, 8(%esp)
	movl	$LC57, 4(%esp)
	leal	-56(%ebp), %eax
	movl	%eax, (%esp)
LEHB310:
	call	__ZNSsC1EPKcRKSaIcE
LEHE310:
	movl	24(%ebp), %eax
	movl	%eax, 12(%esp)
	leal	-60(%ebp), %eax
	movl	%eax, 8(%esp)
	leal	-56(%ebp), %eax
	movl	%eax, 4(%esp)
	leal	-72(%ebp), %eax
	movl	%eax, (%esp)
LEHB311:
	call	__ZN16ByteCodeMnemonicC1ESsSsj
LEHE311:
	movl	8(%ebp), %eax
	leal	-72(%ebp), %edx
	movl	%edx, 4(%esp)
	movl	%eax, (%esp)
LEHB312:
	call	__ZNSt4listI16ByteCodeMnemonicSaIS0_EE9push_backERKS0_
LEHE312:
	leal	-72(%ebp), %eax
	movl	%eax, (%esp)
LEHB313:
	call	__ZN16ByteCodeMnemonicD1Ev
LEHE313:
	leal	-56(%ebp), %eax
	movl	%eax, (%esp)
LEHB314:
	call	__ZNSsD1Ev
LEHE314:
	leal	-49(%ebp), %eax
	movl	%eax, (%esp)
	call	__ZNSaIcED1Ev
	leal	-60(%ebp), %eax
	movl	%eax, (%esp)
LEHB315:
	call	__ZNSsD1Ev
	leal	-420(%ebp), %eax
	movl	%eax, (%esp)
	call	__ZNSt4listISsSaISsEE8pop_backEv
	movb	$0, -10(%ebp)
	leal	-472(%ebp), %eax
	movl	%eax, 4(%esp)
	movl	16(%ebp), %eax
	movl	%eax, (%esp)
	call	__ZNKSt3mapISsjSt4lessISsESaISt4pairIKSsjEEE5countERS3_
LEHE315:
	cmpl	$1, %eax
	sete	%al
	testb	%al, %al
	je	L398
	incl	-16(%ebp)
	movl	8(%ebp), %eax
	movb	8(%eax), %al
	movb	%al, %dl
	andl	$-3, %edx
	movl	8(%ebp), %eax
	movb	%dl, 8(%eax)
	jmp	L399
L398:
	movl	8(%ebp), %eax
	movb	8(%eax), %al
	movb	%al, %dl
	orl	$2, %edx
	movl	8(%ebp), %eax
	movb	%dl, 8(%eax)
L399:
	leal	-472(%ebp), %eax
	movl	%eax, (%esp)
LEHB316:
	call	__ZNSsD1Ev
LEHE316:
	leal	-468(%ebp), %eax
	movl	%eax, (%esp)
LEHB317:
	call	__ZNSsD1Ev
L396:
	leal	-420(%ebp), %eax
	movl	%eax, (%esp)
	call	__ZNKSt4listISsSaISsEE5emptyEv
	xorl	$1, %eax
	testb	%al, %al
	jne	L400
	cmpb	$0, -10(%ebp)
	je	L401
	leal	-40(%ebp), %eax
	movl	24(%ebp), %edx
	movl	%edx, 4(%esp)
	movl	%eax, (%esp)
	call	__Z15ConvertToStringIjESsT_
LEHE317:
	subl	$4, %esp
	leal	-44(%ebp), %eax
	leal	-40(%ebp), %edx
	movl	%edx, 8(%esp)
	movl	$LC73, 4(%esp)
	movl	%eax, (%esp)
LEHB318:
	call	__ZStplIcSt11char_traitsIcESaIcEESbIT_T0_T1_EPKS3_RKS6_
LEHE318:
	subl	$4, %esp
	leal	-48(%ebp), %eax
	movl	$LC36, 8(%esp)
	leal	-44(%ebp), %edx
	movl	%edx, 4(%esp)
	movl	%eax, (%esp)
LEHB319:
	call	__ZStplIcSt11char_traitsIcESaIcEESbIT_T0_T1_ERKS6_PKS3_
LEHE319:
	subl	$4, %esp
	leal	-48(%ebp), %eax
	movl	%eax, (%esp)
LEHB320:
	call	__Z12ProcessErrorRKSs
LEHE320:
	leal	-48(%ebp), %eax
	movl	%eax, (%esp)
LEHB321:
	call	__ZNSsD1Ev
LEHE321:
	leal	-44(%ebp), %eax
	movl	%eax, (%esp)
LEHB322:
	call	__ZNSsD1Ev
LEHE322:
	leal	-40(%ebp), %eax
	movl	%eax, (%esp)
LEHB323:
	call	__ZNSsD1Ev
L401:
	cmpl	$1, -16(%ebp)
	ja	L402
	cmpl	$1, -16(%ebp)
	jne	L403
	movl	8(%ebp), %eax
	movb	8(%eax), %al
	movzbl	%al, %eax
	andl	$2, %eax
	testl	%eax, %eax
	je	L403
L402:
	leal	-28(%ebp), %eax
	movl	24(%ebp), %edx
	movl	%edx, 4(%esp)
	movl	%eax, (%esp)
	call	__Z15ConvertToStringIjESsT_
LEHE323:
	subl	$4, %esp
	leal	-32(%ebp), %eax
	leal	-28(%ebp), %edx
	movl	%edx, 8(%esp)
	movl	$LC74, 4(%esp)
	movl	%eax, (%esp)
LEHB324:
	call	__ZStplIcSt11char_traitsIcESaIcEESbIT_T0_T1_EPKS3_RKS6_
LEHE324:
	subl	$4, %esp
	leal	-36(%ebp), %eax
	movl	$LC36, 8(%esp)
	leal	-32(%ebp), %edx
	movl	%edx, 4(%esp)
	movl	%eax, (%esp)
LEHB325:
	call	__ZStplIcSt11char_traitsIcESaIcEESbIT_T0_T1_ERKS6_PKS3_
LEHE325:
	subl	$4, %esp
	leal	-36(%ebp), %eax
	movl	%eax, (%esp)
LEHB326:
	call	__Z12ProcessErrorRKSs
LEHE326:
	leal	-36(%ebp), %eax
	movl	%eax, (%esp)
LEHB327:
	call	__ZNSsD1Ev
LEHE327:
	leal	-32(%ebp), %eax
	movl	%eax, (%esp)
LEHB328:
	call	__ZNSsD1Ev
LEHE328:
	leal	-28(%ebp), %eax
	movl	%eax, (%esp)
LEHB329:
	call	__ZNSsD1Ev
LEHE329:
L403:
	leal	-512(%ebp), %eax
	movl	%eax, (%esp)
LEHB330:
	call	__ZNSt5stackIjSt5dequeIjSaIjEEED1Ev
LEHE330:
	leal	-420(%ebp), %eax
	movl	%eax, (%esp)
LEHB331:
	call	__ZNSt4listISsSaISsEED1Ev
LEHE331:
	jmp	L559
L482:
	movl	%eax, %ebx
	leal	-412(%ebp), %eax
	movl	%eax, (%esp)
	call	__ZNSt5dequeIjSaIjEED1Ev
	jmp	L405
L487:
	movl	%eax, %ebx
	leal	-368(%ebp), %eax
	movl	%eax, (%esp)
	call	__ZN16ByteCodeMnemonicD1Ev
	jmp	L407
L486:
	movl	%eax, %ebx
L407:
	leal	-352(%ebp), %eax
	movl	%eax, (%esp)
	call	__ZNSsD1Ev
	jmp	L408
L485:
	movl	%eax, %ebx
L408:
	leal	-345(%ebp), %eax
	movl	%eax, (%esp)
	call	__ZNSaIcED1Ev
	leal	-356(%ebp), %eax
	movl	%eax, (%esp)
	call	__ZNSsD1Ev
	jmp	L409
L491:
	movl	%eax, %ebx
	leal	-340(%ebp), %eax
	movl	%eax, (%esp)
	call	__ZN16ByteCodeMnemonicD1Ev
	jmp	L411
L490:
	movl	%eax, %ebx
L411:
	leal	-324(%ebp), %eax
	movl	%eax, (%esp)
	call	__ZNSsD1Ev
	jmp	L412
L489:
	movl	%eax, %ebx
L412:
	leal	-317(%ebp), %eax
	movl	%eax, (%esp)
	call	__ZNSaIcED1Ev
	leal	-328(%ebp), %eax
	movl	%eax, (%esp)
	call	__ZNSsD1Ev
	jmp	L413
L488:
	movl	%eax, %ebx
L413:
	leal	-432(%ebp), %eax
	movl	%eax, (%esp)
	call	__ZNSsD1Ev
	jmp	L409
L494:
	movl	%eax, %ebx
	leal	-316(%ebp), %eax
	movl	%eax, (%esp)
	call	__ZNSsD1Ev
	jmp	L415
L493:
	movl	%eax, %ebx
L415:
	leal	-312(%ebp), %eax
	movl	%eax, (%esp)
	call	__ZNSsD1Ev
	jmp	L416
L492:
	movl	%eax, %ebx
L416:
	leal	-308(%ebp), %eax
	movl	%eax, (%esp)
	call	__ZNSsD1Ev
	jmp	L409
L499:
	movl	%eax, %ebx
	leal	-304(%ebp), %eax
	movl	%eax, (%esp)
	call	__ZN16ByteCodeMnemonicD1Ev
	jmp	L418
L498:
	movl	%eax, %ebx
L418:
	leal	-288(%ebp), %eax
	movl	%eax, (%esp)
	call	__ZNSsD1Ev
	jmp	L419
L497:
	movl	%eax, %ebx
L419:
	leal	-281(%ebp), %eax
	movl	%eax, (%esp)
	call	__ZNSaIcED1Ev
	leal	-292(%ebp), %eax
	movl	%eax, (%esp)
	call	__ZNSsD1Ev
	jmp	L420
L496:
	movl	%eax, %ebx
L420:
	leal	-440(%ebp), %eax
	movl	%eax, (%esp)
	call	__ZNSsD1Ev
	jmp	L421
L495:
	movl	%eax, %ebx
L421:
	leal	-436(%ebp), %eax
	movl	%eax, (%esp)
	call	__ZNSsD1Ev
	jmp	L409
L502:
	movl	%eax, %ebx
	leal	-280(%ebp), %eax
	movl	%eax, (%esp)
	call	__ZNSsD1Ev
	jmp	L423
L501:
	movl	%eax, %ebx
L423:
	leal	-276(%ebp), %eax
	movl	%eax, (%esp)
	call	__ZNSsD1Ev
	jmp	L424
L500:
	movl	%eax, %ebx
L424:
	leal	-272(%ebp), %eax
	movl	%eax, (%esp)
	call	__ZNSsD1Ev
	jmp	L409
L507:
	movl	%eax, %ebx
	leal	-268(%ebp), %eax
	movl	%eax, (%esp)
	call	__ZN16ByteCodeMnemonicD1Ev
	jmp	L426
L506:
	movl	%eax, %ebx
L426:
	leal	-252(%ebp), %eax
	movl	%eax, (%esp)
	call	__ZNSsD1Ev
	jmp	L427
L505:
	movl	%eax, %ebx
L427:
	leal	-245(%ebp), %eax
	movl	%eax, (%esp)
	call	__ZNSaIcED1Ev
	leal	-256(%ebp), %eax
	movl	%eax, (%esp)
	call	__ZNSsD1Ev
	jmp	L428
L504:
	movl	%eax, %ebx
L428:
	leal	-448(%ebp), %eax
	movl	%eax, (%esp)
	call	__ZNSsD1Ev
	jmp	L429
L503:
	movl	%eax, %ebx
L429:
	leal	-444(%ebp), %eax
	movl	%eax, (%esp)
	call	__ZNSsD1Ev
	jmp	L409
L510:
	movl	%eax, %ebx
	leal	-244(%ebp), %eax
	movl	%eax, (%esp)
	call	__ZNSsD1Ev
	jmp	L431
L509:
	movl	%eax, %ebx
L431:
	leal	-240(%ebp), %eax
	movl	%eax, (%esp)
	call	__ZNSsD1Ev
	jmp	L432
L508:
	movl	%eax, %ebx
L432:
	leal	-236(%ebp), %eax
	movl	%eax, (%esp)
	call	__ZNSsD1Ev
	jmp	L409
L515:
	movl	%eax, %ebx
	leal	-232(%ebp), %eax
	movl	%eax, (%esp)
	call	__ZN16ByteCodeMnemonicD1Ev
	jmp	L434
L514:
	movl	%eax, %ebx
L434:
	leal	-216(%ebp), %eax
	movl	%eax, (%esp)
	call	__ZNSsD1Ev
	jmp	L435
L513:
	movl	%eax, %ebx
L435:
	leal	-209(%ebp), %eax
	movl	%eax, (%esp)
	call	__ZNSaIcED1Ev
	leal	-220(%ebp), %eax
	movl	%eax, (%esp)
	call	__ZNSsD1Ev
	jmp	L436
L512:
	movl	%eax, %ebx
L436:
	leal	-456(%ebp), %eax
	movl	%eax, (%esp)
	call	__ZNSsD1Ev
	jmp	L437
L511:
	movl	%eax, %ebx
L437:
	leal	-452(%ebp), %eax
	movl	%eax, (%esp)
	call	__ZNSsD1Ev
	jmp	L409
L530:
	movl	%eax, %ebx
	leal	-200(%ebp), %eax
	movl	%eax, (%esp)
	call	__ZNSsD1Ev
	jmp	L439
L529:
	movl	%eax, %ebx
L439:
	leal	-196(%ebp), %eax
	movl	%eax, (%esp)
	call	__ZNSsD1Ev
	jmp	L440
L528:
	movl	%eax, %ebx
L440:
	leal	-188(%ebp), %eax
	movl	%eax, (%esp)
	call	__ZNSsD1Ev
	jmp	L441
L527:
	movl	%eax, %ebx
L441:
	leal	-184(%ebp), %eax
	movl	%eax, (%esp)
	call	__ZNSsD1Ev
	jmp	L442
L526:
	movl	%eax, %ebx
L442:
	leal	-176(%ebp), %eax
	movl	%eax, (%esp)
	call	__ZNSsD1Ev
	jmp	L443
L525:
	movl	%eax, %ebx
L443:
	leal	-172(%ebp), %eax
	movl	%eax, (%esp)
	call	__ZNSsD1Ev
	jmp	L444
L524:
	movl	%eax, %ebx
L444:
	leal	-168(%ebp), %eax
	movl	%eax, (%esp)
	call	__ZNSsD1Ev
	jmp	L445
L523:
	movl	%eax, %ebx
L445:
	leal	-164(%ebp), %eax
	movl	%eax, (%esp)
	call	__ZNSsD1Ev
	jmp	L446
L522:
	movl	%eax, %ebx
L446:
	leal	-156(%ebp), %eax
	movl	%eax, (%esp)
	call	__ZNSsD1Ev
	jmp	L447
L521:
	movl	%eax, %ebx
L447:
	leal	-152(%ebp), %eax
	movl	%eax, (%esp)
	call	__ZNSsD1Ev
	jmp	L448
L520:
	movl	%eax, %ebx
L448:
	leal	-160(%ebp), %eax
	movl	%eax, (%esp)
	call	__ZNSsD1Ev
	jmp	L449
L519:
	movl	%eax, %ebx
L449:
	leal	-180(%ebp), %eax
	movl	%eax, (%esp)
	call	__ZNSsD1Ev
	jmp	L450
L518:
	movl	%eax, %ebx
L450:
	leal	-192(%ebp), %eax
	movl	%eax, (%esp)
	call	__ZNSsD1Ev
	jmp	L451
L533:
	movl	%eax, %ebx
	leal	-148(%ebp), %eax
	movl	%eax, (%esp)
	call	__ZN16ByteCodeMnemonicD1Ev
	jmp	L453
L532:
	movl	%eax, %ebx
L453:
	leal	-132(%ebp), %eax
	movl	%eax, (%esp)
	call	__ZNSsD1Ev
	jmp	L454
L531:
	movl	%eax, %ebx
L454:
	leal	-125(%ebp), %eax
	movl	%eax, (%esp)
	call	__ZNSaIcED1Ev
	leal	-136(%ebp), %eax
	movl	%eax, (%esp)
	call	__ZNSsD1Ev
	jmp	L451
L536:
	movl	%eax, %ebx
	leal	-124(%ebp), %eax
	movl	%eax, (%esp)
	call	__ZN16ByteCodeMnemonicD1Ev
	jmp	L456
L535:
	movl	%eax, %ebx
L456:
	leal	-112(%ebp), %eax
	movl	%eax, (%esp)
	call	__ZNSsD1Ev
	jmp	L457
L534:
	movl	%eax, %ebx
L457:
	leal	-105(%ebp), %eax
	movl	%eax, (%esp)
	call	__ZNSaIcED1Ev
	jmp	L451
L517:
	movl	%eax, %ebx
L451:
	leal	-464(%ebp), %eax
	movl	%eax, (%esp)
	call	__ZNSsD1Ev
	jmp	L458
L516:
	movl	%eax, %ebx
L458:
	leal	-460(%ebp), %eax
	movl	%eax, (%esp)
	call	__ZNSsD1Ev
	jmp	L409
L541:
	movl	%eax, %ebx
	leal	-104(%ebp), %eax
	movl	%eax, (%esp)
	call	__ZNSsD1Ev
	jmp	L460
L540:
	movl	%eax, %ebx
L460:
	leal	-100(%ebp), %eax
	movl	%eax, (%esp)
	call	__ZNSsD1Ev
	jmp	L461
L539:
	movl	%eax, %ebx
L461:
	leal	-92(%ebp), %eax
	movl	%eax, (%esp)
	call	__ZNSsD1Ev
	jmp	L462
L538:
	movl	%eax, %ebx
L462:
	leal	-88(%ebp), %eax
	movl	%eax, (%esp)
	call	__ZNSsD1Ev
	jmp	L463
L537:
	movl	%eax, %ebx
L463:
	leal	-96(%ebp), %eax
	movl	%eax, (%esp)
	call	__ZNSsD1Ev
	jmp	L409
L484:
	movl	%eax, %ebx
L409:
	leal	-428(%ebp), %eax
	movl	%eax, (%esp)
	call	__ZNSsD1Ev
	jmp	L464
L545:
	movl	%eax, %ebx
	leal	-84(%ebp), %eax
	movl	%eax, (%esp)
	call	__ZNSsD1Ev
	jmp	L466
L544:
	movl	%eax, %ebx
L466:
	leal	-80(%ebp), %eax
	movl	%eax, (%esp)
	call	__ZNSsD1Ev
	jmp	L467
L543:
	movl	%eax, %ebx
L467:
	leal	-76(%ebp), %eax
	movl	%eax, (%esp)
	call	__ZNSsD1Ev
	jmp	L468
L549:
	movl	%eax, %ebx
	leal	-72(%ebp), %eax
	movl	%eax, (%esp)
	call	__ZN16ByteCodeMnemonicD1Ev
	jmp	L470
L548:
	movl	%eax, %ebx
L470:
	leal	-56(%ebp), %eax
	movl	%eax, (%esp)
	call	__ZNSsD1Ev
	jmp	L471
L547:
	movl	%eax, %ebx
L471:
	leal	-49(%ebp), %eax
	movl	%eax, (%esp)
	call	__ZNSaIcED1Ev
	leal	-60(%ebp), %eax
	movl	%eax, (%esp)
	call	__ZNSsD1Ev
	jmp	L472
L546:
	movl	%eax, %ebx
L472:
	leal	-472(%ebp), %eax
	movl	%eax, (%esp)
	call	__ZNSsD1Ev
	jmp	L468
L542:
	movl	%eax, %ebx
L468:
	leal	-468(%ebp), %eax
	movl	%eax, (%esp)
	call	__ZNSsD1Ev
	jmp	L464
L552:
	movl	%eax, %ebx
	leal	-48(%ebp), %eax
	movl	%eax, (%esp)
	call	__ZNSsD1Ev
	jmp	L474
L551:
	movl	%eax, %ebx
L474:
	leal	-44(%ebp), %eax
	movl	%eax, (%esp)
	call	__ZNSsD1Ev
	jmp	L475
L550:
	movl	%eax, %ebx
L475:
	leal	-40(%ebp), %eax
	movl	%eax, (%esp)
	call	__ZNSsD1Ev
	jmp	L464
L555:
	movl	%eax, %ebx
	leal	-36(%ebp), %eax
	movl	%eax, (%esp)
	call	__ZNSsD1Ev
	jmp	L477
L554:
	movl	%eax, %ebx
L477:
	leal	-32(%ebp), %eax
	movl	%eax, (%esp)
	call	__ZNSsD1Ev
	jmp	L478
L553:
	movl	%eax, %ebx
L478:
	leal	-28(%ebp), %eax
	movl	%eax, (%esp)
	call	__ZNSsD1Ev
	jmp	L464
L483:
	movl	%eax, %ebx
L464:
	leal	-512(%ebp), %eax
	movl	%eax, (%esp)
	call	__ZNSt5stackIjSt5dequeIjSaIjEEED1Ev
	jmp	L405
L481:
	movl	%eax, %ebx
L405:
	leal	-420(%ebp), %eax
	movl	%eax, (%esp)
	call	__ZNSt4listISsSaISsEED1Ev
	jmp	L479
L480:
	movl	%eax, %ebx
L479:
	movl	8(%ebp), %eax
	movl	%eax, (%esp)
	call	__ZNSt4pairISt4listI16ByteCodeMnemonicSaIS1_EEhED1Ev
	movl	%ebx, %eax
	movl	%eax, (%esp)
LEHB332:
	call	__Unwind_Resume
LEHE332:
L559:
	movl	8(%ebp), %eax
	movl	-4(%ebp), %ebx
	leave
	.cfi_restore 5
	.cfi_def_cfa 4, 4
	.cfi_restore 3
	ret	$4
	.cfi_endproc
LFE1854:
	.section	.gcc_except_table,"w"
LLSDA1854:
	.byte	0xff
	.byte	0xff
	.byte	0x1
	.uleb128 LLSDACSE1854-LLSDACSB1854
LLSDACSB1854:
	.uleb128 LEHB181-LFB1854
	.uleb128 LEHE181-LEHB181
	.uleb128 0
	.uleb128 0
	.uleb128 LEHB182-LFB1854
	.uleb128 LEHE182-LEHB182
	.uleb128 L480-LFB1854
	.uleb128 0
	.uleb128 LEHB183-LFB1854
	.uleb128 LEHE183-LEHB183
	.uleb128 L481-LFB1854
	.uleb128 0
	.uleb128 LEHB184-LFB1854
	.uleb128 LEHE184-LEHB184
	.uleb128 L482-LFB1854
	.uleb128 0
	.uleb128 LEHB185-LFB1854
	.uleb128 LEHE185-LEHB185
	.uleb128 L483-LFB1854
	.uleb128 0
	.uleb128 LEHB186-LFB1854
	.uleb128 LEHE186-LEHB186
	.uleb128 L484-LFB1854
	.uleb128 0
	.uleb128 LEHB187-LFB1854
	.uleb128 LEHE187-LEHB187
	.uleb128 L485-LFB1854
	.uleb128 0
	.uleb128 LEHB188-LFB1854
	.uleb128 LEHE188-LEHB188
	.uleb128 L486-LFB1854
	.uleb128 0
	.uleb128 LEHB189-LFB1854
	.uleb128 LEHE189-LEHB189
	.uleb128 L487-LFB1854
	.uleb128 0
	.uleb128 LEHB190-LFB1854
	.uleb128 LEHE190-LEHB190
	.uleb128 L486-LFB1854
	.uleb128 0
	.uleb128 LEHB191-LFB1854
	.uleb128 LEHE191-LEHB191
	.uleb128 L485-LFB1854
	.uleb128 0
	.uleb128 LEHB192-LFB1854
	.uleb128 LEHE192-LEHB192
	.uleb128 L484-LFB1854
	.uleb128 0
	.uleb128 LEHB193-LFB1854
	.uleb128 LEHE193-LEHB193
	.uleb128 L488-LFB1854
	.uleb128 0
	.uleb128 LEHB194-LFB1854
	.uleb128 LEHE194-LEHB194
	.uleb128 L489-LFB1854
	.uleb128 0
	.uleb128 LEHB195-LFB1854
	.uleb128 LEHE195-LEHB195
	.uleb128 L490-LFB1854
	.uleb128 0
	.uleb128 LEHB196-LFB1854
	.uleb128 LEHE196-LEHB196
	.uleb128 L491-LFB1854
	.uleb128 0
	.uleb128 LEHB197-LFB1854
	.uleb128 LEHE197-LEHB197
	.uleb128 L490-LFB1854
	.uleb128 0
	.uleb128 LEHB198-LFB1854
	.uleb128 LEHE198-LEHB198
	.uleb128 L489-LFB1854
	.uleb128 0
	.uleb128 LEHB199-LFB1854
	.uleb128 LEHE199-LEHB199
	.uleb128 L488-LFB1854
	.uleb128 0
	.uleb128 LEHB200-LFB1854
	.uleb128 LEHE200-LEHB200
	.uleb128 L484-LFB1854
	.uleb128 0
	.uleb128 LEHB201-LFB1854
	.uleb128 LEHE201-LEHB201
	.uleb128 L492-LFB1854
	.uleb128 0
	.uleb128 LEHB202-LFB1854
	.uleb128 LEHE202-LEHB202
	.uleb128 L493-LFB1854
	.uleb128 0
	.uleb128 LEHB203-LFB1854
	.uleb128 LEHE203-LEHB203
	.uleb128 L494-LFB1854
	.uleb128 0
	.uleb128 LEHB204-LFB1854
	.uleb128 LEHE204-LEHB204
	.uleb128 L493-LFB1854
	.uleb128 0
	.uleb128 LEHB205-LFB1854
	.uleb128 LEHE205-LEHB205
	.uleb128 L492-LFB1854
	.uleb128 0
	.uleb128 LEHB206-LFB1854
	.uleb128 LEHE206-LEHB206
	.uleb128 L484-LFB1854
	.uleb128 0
	.uleb128 LEHB207-LFB1854
	.uleb128 LEHE207-LEHB207
	.uleb128 L495-LFB1854
	.uleb128 0
	.uleb128 LEHB208-LFB1854
	.uleb128 LEHE208-LEHB208
	.uleb128 L496-LFB1854
	.uleb128 0
	.uleb128 LEHB209-LFB1854
	.uleb128 LEHE209-LEHB209
	.uleb128 L497-LFB1854
	.uleb128 0
	.uleb128 LEHB210-LFB1854
	.uleb128 LEHE210-LEHB210
	.uleb128 L498-LFB1854
	.uleb128 0
	.uleb128 LEHB211-LFB1854
	.uleb128 LEHE211-LEHB211
	.uleb128 L499-LFB1854
	.uleb128 0
	.uleb128 LEHB212-LFB1854
	.uleb128 LEHE212-LEHB212
	.uleb128 L498-LFB1854
	.uleb128 0
	.uleb128 LEHB213-LFB1854
	.uleb128 LEHE213-LEHB213
	.uleb128 L497-LFB1854
	.uleb128 0
	.uleb128 LEHB214-LFB1854
	.uleb128 LEHE214-LEHB214
	.uleb128 L496-LFB1854
	.uleb128 0
	.uleb128 LEHB215-LFB1854
	.uleb128 LEHE215-LEHB215
	.uleb128 L495-LFB1854
	.uleb128 0
	.uleb128 LEHB216-LFB1854
	.uleb128 LEHE216-LEHB216
	.uleb128 L484-LFB1854
	.uleb128 0
	.uleb128 LEHB217-LFB1854
	.uleb128 LEHE217-LEHB217
	.uleb128 L500-LFB1854
	.uleb128 0
	.uleb128 LEHB218-LFB1854
	.uleb128 LEHE218-LEHB218
	.uleb128 L501-LFB1854
	.uleb128 0
	.uleb128 LEHB219-LFB1854
	.uleb128 LEHE219-LEHB219
	.uleb128 L502-LFB1854
	.uleb128 0
	.uleb128 LEHB220-LFB1854
	.uleb128 LEHE220-LEHB220
	.uleb128 L501-LFB1854
	.uleb128 0
	.uleb128 LEHB221-LFB1854
	.uleb128 LEHE221-LEHB221
	.uleb128 L500-LFB1854
	.uleb128 0
	.uleb128 LEHB222-LFB1854
	.uleb128 LEHE222-LEHB222
	.uleb128 L484-LFB1854
	.uleb128 0
	.uleb128 LEHB223-LFB1854
	.uleb128 LEHE223-LEHB223
	.uleb128 L503-LFB1854
	.uleb128 0
	.uleb128 LEHB224-LFB1854
	.uleb128 LEHE224-LEHB224
	.uleb128 L504-LFB1854
	.uleb128 0
	.uleb128 LEHB225-LFB1854
	.uleb128 LEHE225-LEHB225
	.uleb128 L505-LFB1854
	.uleb128 0
	.uleb128 LEHB226-LFB1854
	.uleb128 LEHE226-LEHB226
	.uleb128 L506-LFB1854
	.uleb128 0
	.uleb128 LEHB227-LFB1854
	.uleb128 LEHE227-LEHB227
	.uleb128 L507-LFB1854
	.uleb128 0
	.uleb128 LEHB228-LFB1854
	.uleb128 LEHE228-LEHB228
	.uleb128 L506-LFB1854
	.uleb128 0
	.uleb128 LEHB229-LFB1854
	.uleb128 LEHE229-LEHB229
	.uleb128 L505-LFB1854
	.uleb128 0
	.uleb128 LEHB230-LFB1854
	.uleb128 LEHE230-LEHB230
	.uleb128 L504-LFB1854
	.uleb128 0
	.uleb128 LEHB231-LFB1854
	.uleb128 LEHE231-LEHB231
	.uleb128 L503-LFB1854
	.uleb128 0
	.uleb128 LEHB232-LFB1854
	.uleb128 LEHE232-LEHB232
	.uleb128 L484-LFB1854
	.uleb128 0
	.uleb128 LEHB233-LFB1854
	.uleb128 LEHE233-LEHB233
	.uleb128 L508-LFB1854
	.uleb128 0
	.uleb128 LEHB234-LFB1854
	.uleb128 LEHE234-LEHB234
	.uleb128 L509-LFB1854
	.uleb128 0
	.uleb128 LEHB235-LFB1854
	.uleb128 LEHE235-LEHB235
	.uleb128 L510-LFB1854
	.uleb128 0
	.uleb128 LEHB236-LFB1854
	.uleb128 LEHE236-LEHB236
	.uleb128 L509-LFB1854
	.uleb128 0
	.uleb128 LEHB237-LFB1854
	.uleb128 LEHE237-LEHB237
	.uleb128 L508-LFB1854
	.uleb128 0
	.uleb128 LEHB238-LFB1854
	.uleb128 LEHE238-LEHB238
	.uleb128 L484-LFB1854
	.uleb128 0
	.uleb128 LEHB239-LFB1854
	.uleb128 LEHE239-LEHB239
	.uleb128 L511-LFB1854
	.uleb128 0
	.uleb128 LEHB240-LFB1854
	.uleb128 LEHE240-LEHB240
	.uleb128 L512-LFB1854
	.uleb128 0
	.uleb128 LEHB241-LFB1854
	.uleb128 LEHE241-LEHB241
	.uleb128 L513-LFB1854
	.uleb128 0
	.uleb128 LEHB242-LFB1854
	.uleb128 LEHE242-LEHB242
	.uleb128 L514-LFB1854
	.uleb128 0
	.uleb128 LEHB243-LFB1854
	.uleb128 LEHE243-LEHB243
	.uleb128 L515-LFB1854
	.uleb128 0
	.uleb128 LEHB244-LFB1854
	.uleb128 LEHE244-LEHB244
	.uleb128 L514-LFB1854
	.uleb128 0
	.uleb128 LEHB245-LFB1854
	.uleb128 LEHE245-LEHB245
	.uleb128 L513-LFB1854
	.uleb128 0
	.uleb128 LEHB246-LFB1854
	.uleb128 LEHE246-LEHB246
	.uleb128 L512-LFB1854
	.uleb128 0
	.uleb128 LEHB247-LFB1854
	.uleb128 LEHE247-LEHB247
	.uleb128 L511-LFB1854
	.uleb128 0
	.uleb128 LEHB248-LFB1854
	.uleb128 LEHE248-LEHB248
	.uleb128 L484-LFB1854
	.uleb128 0
	.uleb128 LEHB249-LFB1854
	.uleb128 LEHE249-LEHB249
	.uleb128 L516-LFB1854
	.uleb128 0
	.uleb128 LEHB250-LFB1854
	.uleb128 LEHE250-LEHB250
	.uleb128 L517-LFB1854
	.uleb128 0
	.uleb128 LEHB251-LFB1854
	.uleb128 LEHE251-LEHB251
	.uleb128 L518-LFB1854
	.uleb128 0
	.uleb128 LEHB252-LFB1854
	.uleb128 LEHE252-LEHB252
	.uleb128 L519-LFB1854
	.uleb128 0
	.uleb128 LEHB253-LFB1854
	.uleb128 LEHE253-LEHB253
	.uleb128 L520-LFB1854
	.uleb128 0
	.uleb128 LEHB254-LFB1854
	.uleb128 LEHE254-LEHB254
	.uleb128 L521-LFB1854
	.uleb128 0
	.uleb128 LEHB255-LFB1854
	.uleb128 LEHE255-LEHB255
	.uleb128 L522-LFB1854
	.uleb128 0
	.uleb128 LEHB256-LFB1854
	.uleb128 LEHE256-LEHB256
	.uleb128 L523-LFB1854
	.uleb128 0
	.uleb128 LEHB257-LFB1854
	.uleb128 LEHE257-LEHB257
	.uleb128 L524-LFB1854
	.uleb128 0
	.uleb128 LEHB258-LFB1854
	.uleb128 LEHE258-LEHB258
	.uleb128 L525-LFB1854
	.uleb128 0
	.uleb128 LEHB259-LFB1854
	.uleb128 LEHE259-LEHB259
	.uleb128 L526-LFB1854
	.uleb128 0
	.uleb128 LEHB260-LFB1854
	.uleb128 LEHE260-LEHB260
	.uleb128 L527-LFB1854
	.uleb128 0
	.uleb128 LEHB261-LFB1854
	.uleb128 LEHE261-LEHB261
	.uleb128 L528-LFB1854
	.uleb128 0
	.uleb128 LEHB262-LFB1854
	.uleb128 LEHE262-LEHB262
	.uleb128 L529-LFB1854
	.uleb128 0
	.uleb128 LEHB263-LFB1854
	.uleb128 LEHE263-LEHB263
	.uleb128 L530-LFB1854
	.uleb128 0
	.uleb128 LEHB264-LFB1854
	.uleb128 LEHE264-LEHB264
	.uleb128 L529-LFB1854
	.uleb128 0
	.uleb128 LEHB265-LFB1854
	.uleb128 LEHE265-LEHB265
	.uleb128 L528-LFB1854
	.uleb128 0
	.uleb128 LEHB266-LFB1854
	.uleb128 LEHE266-LEHB266
	.uleb128 L527-LFB1854
	.uleb128 0
	.uleb128 LEHB267-LFB1854
	.uleb128 LEHE267-LEHB267
	.uleb128 L526-LFB1854
	.uleb128 0
	.uleb128 LEHB268-LFB1854
	.uleb128 LEHE268-LEHB268
	.uleb128 L525-LFB1854
	.uleb128 0
	.uleb128 LEHB269-LFB1854
	.uleb128 LEHE269-LEHB269
	.uleb128 L524-LFB1854
	.uleb128 0
	.uleb128 LEHB270-LFB1854
	.uleb128 LEHE270-LEHB270
	.uleb128 L523-LFB1854
	.uleb128 0
	.uleb128 LEHB271-LFB1854
	.uleb128 LEHE271-LEHB271
	.uleb128 L522-LFB1854
	.uleb128 0
	.uleb128 LEHB272-LFB1854
	.uleb128 LEHE272-LEHB272
	.uleb128 L521-LFB1854
	.uleb128 0
	.uleb128 LEHB273-LFB1854
	.uleb128 LEHE273-LEHB273
	.uleb128 L520-LFB1854
	.uleb128 0
	.uleb128 LEHB274-LFB1854
	.uleb128 LEHE274-LEHB274
	.uleb128 L519-LFB1854
	.uleb128 0
	.uleb128 LEHB275-LFB1854
	.uleb128 LEHE275-LEHB275
	.uleb128 L518-LFB1854
	.uleb128 0
	.uleb128 LEHB276-LFB1854
	.uleb128 LEHE276-LEHB276
	.uleb128 L517-LFB1854
	.uleb128 0
	.uleb128 LEHB277-LFB1854
	.uleb128 LEHE277-LEHB277
	.uleb128 L531-LFB1854
	.uleb128 0
	.uleb128 LEHB278-LFB1854
	.uleb128 LEHE278-LEHB278
	.uleb128 L532-LFB1854
	.uleb128 0
	.uleb128 LEHB279-LFB1854
	.uleb128 LEHE279-LEHB279
	.uleb128 L533-LFB1854
	.uleb128 0
	.uleb128 LEHB280-LFB1854
	.uleb128 LEHE280-LEHB280
	.uleb128 L532-LFB1854
	.uleb128 0
	.uleb128 LEHB281-LFB1854
	.uleb128 LEHE281-LEHB281
	.uleb128 L531-LFB1854
	.uleb128 0
	.uleb128 LEHB282-LFB1854
	.uleb128 LEHE282-LEHB282
	.uleb128 L517-LFB1854
	.uleb128 0
	.uleb128 LEHB283-LFB1854
	.uleb128 LEHE283-LEHB283
	.uleb128 L534-LFB1854
	.uleb128 0
	.uleb128 LEHB284-LFB1854
	.uleb128 LEHE284-LEHB284
	.uleb128 L535-LFB1854
	.uleb128 0
	.uleb128 LEHB285-LFB1854
	.uleb128 LEHE285-LEHB285
	.uleb128 L536-LFB1854
	.uleb128 0
	.uleb128 LEHB286-LFB1854
	.uleb128 LEHE286-LEHB286
	.uleb128 L535-LFB1854
	.uleb128 0
	.uleb128 LEHB287-LFB1854
	.uleb128 LEHE287-LEHB287
	.uleb128 L534-LFB1854
	.uleb128 0
	.uleb128 LEHB288-LFB1854
	.uleb128 LEHE288-LEHB288
	.uleb128 L517-LFB1854
	.uleb128 0
	.uleb128 LEHB289-LFB1854
	.uleb128 LEHE289-LEHB289
	.uleb128 L516-LFB1854
	.uleb128 0
	.uleb128 LEHB290-LFB1854
	.uleb128 LEHE290-LEHB290
	.uleb128 L484-LFB1854
	.uleb128 0
	.uleb128 LEHB291-LFB1854
	.uleb128 LEHE291-LEHB291
	.uleb128 L537-LFB1854
	.uleb128 0
	.uleb128 LEHB292-LFB1854
	.uleb128 LEHE292-LEHB292
	.uleb128 L538-LFB1854
	.uleb128 0
	.uleb128 LEHB293-LFB1854
	.uleb128 LEHE293-LEHB293
	.uleb128 L539-LFB1854
	.uleb128 0
	.uleb128 LEHB294-LFB1854
	.uleb128 LEHE294-LEHB294
	.uleb128 L540-LFB1854
	.uleb128 0
	.uleb128 LEHB295-LFB1854
	.uleb128 LEHE295-LEHB295
	.uleb128 L541-LFB1854
	.uleb128 0
	.uleb128 LEHB296-LFB1854
	.uleb128 LEHE296-LEHB296
	.uleb128 L540-LFB1854
	.uleb128 0
	.uleb128 LEHB297-LFB1854
	.uleb128 LEHE297-LEHB297
	.uleb128 L539-LFB1854
	.uleb128 0
	.uleb128 LEHB298-LFB1854
	.uleb128 LEHE298-LEHB298
	.uleb128 L538-LFB1854
	.uleb128 0
	.uleb128 LEHB299-LFB1854
	.uleb128 LEHE299-LEHB299
	.uleb128 L537-LFB1854
	.uleb128 0
	.uleb128 LEHB300-LFB1854
	.uleb128 LEHE300-LEHB300
	.uleb128 L484-LFB1854
	.uleb128 0
	.uleb128 LEHB301-LFB1854
	.uleb128 LEHE301-LEHB301
	.uleb128 L483-LFB1854
	.uleb128 0
	.uleb128 LEHB302-LFB1854
	.uleb128 LEHE302-LEHB302
	.uleb128 L542-LFB1854
	.uleb128 0
	.uleb128 LEHB303-LFB1854
	.uleb128 LEHE303-LEHB303
	.uleb128 L543-LFB1854
	.uleb128 0
	.uleb128 LEHB304-LFB1854
	.uleb128 LEHE304-LEHB304
	.uleb128 L544-LFB1854
	.uleb128 0
	.uleb128 LEHB305-LFB1854
	.uleb128 LEHE305-LEHB305
	.uleb128 L545-LFB1854
	.uleb128 0
	.uleb128 LEHB306-LFB1854
	.uleb128 LEHE306-LEHB306
	.uleb128 L544-LFB1854
	.uleb128 0
	.uleb128 LEHB307-LFB1854
	.uleb128 LEHE307-LEHB307
	.uleb128 L543-LFB1854
	.uleb128 0
	.uleb128 LEHB308-LFB1854
	.uleb128 LEHE308-LEHB308
	.uleb128 L542-LFB1854
	.uleb128 0
	.uleb128 LEHB309-LFB1854
	.uleb128 LEHE309-LEHB309
	.uleb128 L546-LFB1854
	.uleb128 0
	.uleb128 LEHB310-LFB1854
	.uleb128 LEHE310-LEHB310
	.uleb128 L547-LFB1854
	.uleb128 0
	.uleb128 LEHB311-LFB1854
	.uleb128 LEHE311-LEHB311
	.uleb128 L548-LFB1854
	.uleb128 0
	.uleb128 LEHB312-LFB1854
	.uleb128 LEHE312-LEHB312
	.uleb128 L549-LFB1854
	.uleb128 0
	.uleb128 LEHB313-LFB1854
	.uleb128 LEHE313-LEHB313
	.uleb128 L548-LFB1854
	.uleb128 0
	.uleb128 LEHB314-LFB1854
	.uleb128 LEHE314-LEHB314
	.uleb128 L547-LFB1854
	.uleb128 0
	.uleb128 LEHB315-LFB1854
	.uleb128 LEHE315-LEHB315
	.uleb128 L546-LFB1854
	.uleb128 0
	.uleb128 LEHB316-LFB1854
	.uleb128 LEHE316-LEHB316
	.uleb128 L542-LFB1854
	.uleb128 0
	.uleb128 LEHB317-LFB1854
	.uleb128 LEHE317-LEHB317
	.uleb128 L483-LFB1854
	.uleb128 0
	.uleb128 LEHB318-LFB1854
	.uleb128 LEHE318-LEHB318
	.uleb128 L550-LFB1854
	.uleb128 0
	.uleb128 LEHB319-LFB1854
	.uleb128 LEHE319-LEHB319
	.uleb128 L551-LFB1854
	.uleb128 0
	.uleb128 LEHB320-LFB1854
	.uleb128 LEHE320-LEHB320
	.uleb128 L552-LFB1854
	.uleb128 0
	.uleb128 LEHB321-LFB1854
	.uleb128 LEHE321-LEHB321
	.uleb128 L551-LFB1854
	.uleb128 0
	.uleb128 LEHB322-LFB1854
	.uleb128 LEHE322-LEHB322
	.uleb128 L550-LFB1854
	.uleb128 0
	.uleb128 LEHB323-LFB1854
	.uleb128 LEHE323-LEHB323
	.uleb128 L483-LFB1854
	.uleb128 0
	.uleb128 LEHB324-LFB1854
	.uleb128 LEHE324-LEHB324
	.uleb128 L553-LFB1854
	.uleb128 0
	.uleb128 LEHB325-LFB1854
	.uleb128 LEHE325-LEHB325
	.uleb128 L554-LFB1854
	.uleb128 0
	.uleb128 LEHB326-LFB1854
	.uleb128 LEHE326-LEHB326
	.uleb128 L555-LFB1854
	.uleb128 0
	.uleb128 LEHB327-LFB1854
	.uleb128 LEHE327-LEHB327
	.uleb128 L554-LFB1854
	.uleb128 0
	.uleb128 LEHB328-LFB1854
	.uleb128 LEHE328-LEHB328
	.uleb128 L553-LFB1854
	.uleb128 0
	.uleb128 LEHB329-LFB1854
	.uleb128 LEHE329-LEHB329
	.uleb128 L483-LFB1854
	.uleb128 0
	.uleb128 LEHB330-LFB1854
	.uleb128 LEHE330-LEHB330
	.uleb128 L481-LFB1854
	.uleb128 0
	.uleb128 LEHB331-LFB1854
	.uleb128 LEHE331-LEHB331
	.uleb128 L480-LFB1854
	.uleb128 0
	.uleb128 LEHB332-LFB1854
	.uleb128 LEHE332-LEHB332
	.uleb128 0
	.uleb128 0
LLSDACSE1854:
	.text
	.section	.text$_ZNSt3setISsSt4lessISsESaISsEED1Ev,"x"
	.linkonce discard
	.align 2
	.globl	__ZNSt3setISsSt4lessISsESaISsEED1Ev
	.def	__ZNSt3setISsSt4lessISsESaISsEED1Ev;	.scl	2;	.type	32;	.endef
__ZNSt3setISsSt4lessISsESaISsEED1Ev:
LFB1874:
	.cfi_startproc
	pushl	%ebp
	.cfi_def_cfa_offset 8
	.cfi_offset 5, -8
	movl	%esp, %ebp
	.cfi_def_cfa_register 5
	subl	$24, %esp
	movl	8(%ebp), %eax
	movl	%eax, (%esp)
	call	__ZNSt8_Rb_treeISsSsSt9_IdentityISsESt4lessISsESaISsEED1Ev
	leave
	.cfi_restore 5
	.cfi_def_cfa 4, 4
	ret
	.cfi_endproc
LFE1874:
	.section	.text$_ZNSt3mapISsjSt4lessISsESaISt4pairIKSsjEEED1Ev,"x"
	.linkonce discard
	.align 2
	.globl	__ZNSt3mapISsjSt4lessISsESaISt4pairIKSsjEEED1Ev
	.def	__ZNSt3mapISsjSt4lessISsESaISt4pairIKSsjEEED1Ev;	.scl	2;	.type	32;	.endef
__ZNSt3mapISsjSt4lessISsESaISt4pairIKSsjEEED1Ev:
LFB1877:
	.cfi_startproc
	pushl	%ebp
	.cfi_def_cfa_offset 8
	.cfi_offset 5, -8
	movl	%esp, %ebp
	.cfi_def_cfa_register 5
	subl	$24, %esp
	movl	8(%ebp), %eax
	movl	%eax, (%esp)
	call	__ZNSt8_Rb_treeISsSt4pairIKSsjESt10_Select1stIS2_ESt4lessISsESaIS2_EED1Ev
	leave
	.cfi_restore 5
	.cfi_def_cfa 4, 4
	ret
	.cfi_endproc
LFE1877:
	.section	.text$_ZNSt4listISt4pairISsSsESaIS1_EED1Ev,"x"
	.linkonce discard
	.align 2
	.globl	__ZNSt4listISt4pairISsSsESaIS1_EED1Ev
	.def	__ZNSt4listISt4pairISsSsESaIS1_EED1Ev;	.scl	2;	.type	32;	.endef
__ZNSt4listISt4pairISsSsESaIS1_EED1Ev:
LFB1880:
	.cfi_startproc
	pushl	%ebp
	.cfi_def_cfa_offset 8
	.cfi_offset 5, -8
	movl	%esp, %ebp
	.cfi_def_cfa_register 5
	subl	$24, %esp
	movl	8(%ebp), %eax
	movl	%eax, (%esp)
	call	__ZNSt10_List_baseISt4pairISsSsESaIS1_EED2Ev
	leave
	.cfi_restore 5
	.cfi_def_cfa 4, 4
	ret
	.cfi_endproc
LFE1880:
	.section	.text$_ZN14ByteCodeModuleC1Ev,"x"
	.linkonce discard
	.align 2
	.globl	__ZN14ByteCodeModuleC1Ev
	.def	__ZN14ByteCodeModuleC1Ev;	.scl	2;	.type	32;	.endef
__ZN14ByteCodeModuleC1Ev:
LFB1882:
	.cfi_startproc
	.cfi_personality 0,___gxx_personality_v0
	.cfi_lsda 0,LLSDA1882
	pushl	%ebp
	.cfi_def_cfa_offset 8
	.cfi_offset 5, -8
	movl	%esp, %ebp
	.cfi_def_cfa_register 5
	pushl	%ebx
	subl	$20, %esp
	movl	8(%ebp), %eax
	movl	%eax, (%esp)
LEHB333:
	.cfi_offset 3, -12
	call	__ZNSt4listI16ByteCodeMnemonicSaIS0_EEC1Ev
LEHE333:
	movl	8(%ebp), %eax
	addl	$8, %eax
	movl	%eax, (%esp)
LEHB334:
	call	__ZNSt3setISsSt4lessISsESaISsEEC1Ev
LEHE334:
	movl	8(%ebp), %eax
	addl	$32, %eax
	movl	%eax, (%esp)
LEHB335:
	call	__ZNSt3mapISsjSt4lessISsESaISt4pairIKSsjEEEC1Ev
LEHE335:
	movl	8(%ebp), %eax
	addl	$56, %eax
	movl	%eax, (%esp)
LEHB336:
	call	__ZNSt3mapISsjSt4lessISsESaISt4pairIKSsjEEEC1Ev
LEHE336:
	movl	8(%ebp), %eax
	addl	$80, %eax
	movl	%eax, (%esp)
LEHB337:
	call	__ZNSt4listISt4pairISsSsESaIS1_EEC1Ev
LEHE337:
	jmp	L579
L578:
	movl	%eax, %ebx
	movl	8(%ebp), %eax
	addl	$56, %eax
	movl	%eax, (%esp)
	call	__ZNSt3mapISsjSt4lessISsESaISt4pairIKSsjEEED1Ev
	jmp	L572
L577:
	movl	%eax, %ebx
L572:
	movl	8(%ebp), %eax
	addl	$32, %eax
	movl	%eax, (%esp)
	call	__ZNSt3mapISsjSt4lessISsESaISt4pairIKSsjEEED1Ev
	jmp	L573
L576:
	movl	%eax, %ebx
L573:
	movl	8(%ebp), %eax
	addl	$8, %eax
	movl	%eax, (%esp)
	call	__ZNSt3setISsSt4lessISsESaISsEED1Ev
	jmp	L574
L575:
	movl	%eax, %ebx
L574:
	movl	8(%ebp), %eax
	movl	%eax, (%esp)
	call	__ZNSt4listI16ByteCodeMnemonicSaIS0_EED1Ev
	movl	%ebx, %eax
	movl	%eax, (%esp)
LEHB338:
	call	__Unwind_Resume
LEHE338:
L579:
	addl	$20, %esp
	popl	%ebx
	.cfi_restore 3
	popl	%ebp
	.cfi_def_cfa 4, 4
	.cfi_restore 5
	ret
	.cfi_endproc
LFE1882:
	.section	.gcc_except_table,"w"
LLSDA1882:
	.byte	0xff
	.byte	0xff
	.byte	0x1
	.uleb128 LLSDACSE1882-LLSDACSB1882
LLSDACSB1882:
	.uleb128 LEHB333-LFB1882
	.uleb128 LEHE333-LEHB333
	.uleb128 0
	.uleb128 0
	.uleb128 LEHB334-LFB1882
	.uleb128 LEHE334-LEHB334
	.uleb128 L575-LFB1882
	.uleb128 0
	.uleb128 LEHB335-LFB1882
	.uleb128 LEHE335-LEHB335
	.uleb128 L576-LFB1882
	.uleb128 0
	.uleb128 LEHB336-LFB1882
	.uleb128 LEHE336-LEHB336
	.uleb128 L577-LFB1882
	.uleb128 0
	.uleb128 LEHB337-LFB1882
	.uleb128 LEHE337-LEHB337
	.uleb128 L578-LFB1882
	.uleb128 0
	.uleb128 LEHB338-LFB1882
	.uleb128 LEHE338-LEHB338
	.uleb128 0
	.uleb128 0
LLSDACSE1882:
	.section	.text$_ZN14ByteCodeModuleC1Ev,"x"
	.linkonce discard
	.section	.text$_ZN14ByteCodeModuleD1Ev,"x"
	.linkonce discard
	.align 2
	.globl	__ZN14ByteCodeModuleD1Ev
	.def	__ZN14ByteCodeModuleD1Ev;	.scl	2;	.type	32;	.endef
__ZN14ByteCodeModuleD1Ev:
LFB1885:
	.cfi_startproc
	.cfi_personality 0,___gxx_personality_v0
	.cfi_lsda 0,LLSDA1885
	pushl	%ebp
	.cfi_def_cfa_offset 8
	.cfi_offset 5, -8
	movl	%esp, %ebp
	.cfi_def_cfa_register 5
	pushl	%ebx
	subl	$20, %esp
	movl	8(%ebp), %eax
	addl	$80, %eax
	movl	%eax, (%esp)
LEHB339:
	.cfi_offset 3, -12
	call	__ZNSt4listISt4pairISsSsESaIS1_EED1Ev
LEHE339:
	movl	8(%ebp), %eax
	addl	$56, %eax
	movl	%eax, (%esp)
LEHB340:
	call	__ZNSt3mapISsjSt4lessISsESaISt4pairIKSsjEEED1Ev
LEHE340:
	movl	8(%ebp), %eax
	addl	$32, %eax
	movl	%eax, (%esp)
LEHB341:
	call	__ZNSt3mapISsjSt4lessISsESaISt4pairIKSsjEEED1Ev
LEHE341:
	movl	8(%ebp), %eax
	addl	$8, %eax
	movl	%eax, (%esp)
LEHB342:
	call	__ZNSt3setISsSt4lessISsESaISsEED1Ev
LEHE342:
	movl	8(%ebp), %eax
	movl	%eax, (%esp)
LEHB343:
	call	__ZNSt4listI16ByteCodeMnemonicSaIS0_EED1Ev
LEHE343:
	addl	$20, %esp
	popl	%ebx
	.cfi_remember_state
	.cfi_restore 3
	popl	%ebp
	.cfi_def_cfa 4, 4
	.cfi_restore 5
	ret
L586:
	.cfi_restore_state
	movl	%eax, %ebx
	movl	8(%ebp), %eax
	addl	$56, %eax
	movl	%eax, (%esp)
	call	__ZNSt3mapISsjSt4lessISsESaISt4pairIKSsjEEED1Ev
	jmp	L583
L587:
	movl	%eax, %ebx
L583:
	movl	8(%ebp), %eax
	addl	$32, %eax
	movl	%eax, (%esp)
	call	__ZNSt3mapISsjSt4lessISsESaISt4pairIKSsjEEED1Ev
	jmp	L584
L588:
	movl	%eax, %ebx
L584:
	movl	8(%ebp), %eax
	addl	$8, %eax
	movl	%eax, (%esp)
	call	__ZNSt3setISsSt4lessISsESaISsEED1Ev
	jmp	L585
L589:
	movl	%eax, %ebx
L585:
	movl	8(%ebp), %eax
	movl	%eax, (%esp)
	call	__ZNSt4listI16ByteCodeMnemonicSaIS0_EED1Ev
	movl	%ebx, %eax
	movl	%eax, (%esp)
LEHB344:
	call	__Unwind_Resume
LEHE344:
	.cfi_endproc
LFE1885:
	.section	.gcc_except_table,"w"
LLSDA1885:
	.byte	0xff
	.byte	0xff
	.byte	0x1
	.uleb128 LLSDACSE1885-LLSDACSB1885
LLSDACSB1885:
	.uleb128 LEHB339-LFB1885
	.uleb128 LEHE339-LEHB339
	.uleb128 L586-LFB1885
	.uleb128 0
	.uleb128 LEHB340-LFB1885
	.uleb128 LEHE340-LEHB340
	.uleb128 L587-LFB1885
	.uleb128 0
	.uleb128 LEHB341-LFB1885
	.uleb128 LEHE341-LEHB341
	.uleb128 L588-LFB1885
	.uleb128 0
	.uleb128 LEHB342-LFB1885
	.uleb128 LEHE342-LEHB342
	.uleb128 L589-LFB1885
	.uleb128 0
	.uleb128 LEHB343-LFB1885
	.uleb128 LEHE343-LEHB343
	.uleb128 0
	.uleb128 0
	.uleb128 LEHB344-LFB1885
	.uleb128 LEHE344-LEHB344
	.uleb128 0
	.uleb128 0
LLSDACSE1885:
	.section	.text$_ZN14ByteCodeModuleD1Ev,"x"
	.linkonce discard
	.section	.text$_ZNSt4listIlSaIlEED1Ev,"x"
	.linkonce discard
	.align 2
	.globl	__ZNSt4listIlSaIlEED1Ev
	.def	__ZNSt4listIlSaIlEED1Ev;	.scl	2;	.type	32;	.endef
__ZNSt4listIlSaIlEED1Ev:
LFB1888:
	.cfi_startproc
	pushl	%ebp
	.cfi_def_cfa_offset 8
	.cfi_offset 5, -8
	movl	%esp, %ebp
	.cfi_def_cfa_register 5
	subl	$24, %esp
	movl	8(%ebp), %eax
	movl	%eax, (%esp)
	call	__ZNSt10_List_baseIlSaIlEED2Ev
	leave
	.cfi_restore 5
	.cfi_def_cfa 4, 4
	ret
	.cfi_endproc
LFE1888:
	.section .rdata,"dr"
LC75:
	.ascii "ArrayCreate\0"
LC76:
	.ascii "ArrayCreateFromString\0"
LC77:
	.ascii "ArrayGetSize\0"
LC78:
	.ascii "ArrayItemGet\0"
LC79:
	.ascii "FileOpen\0"
LC80:
	.ascii "FileRead\0"
LC81:
	.ascii "FileReadAll\0"
LC82:
	.ascii "MathAngle\0"
LC83:
	.ascii "MathArccos\0"
LC84:
	.ascii "MathArcsin\0"
LC85:
	.ascii "MathArctg\0"
LC86:
	.ascii "MathCos\0"
LC87:
	.ascii "MathExponent\0"
LC88:
	.ascii "MathInteger\0"
LC89:
	.ascii "MathLg\0"
LC90:
	.ascii "MathLn\0"
LC91:
	.ascii "MathModulus\0"
LC92:
	.ascii "MathPower\0"
LC93:
	.ascii "MathRandom\0"
LC94:
	.ascii "MathSin\0"
LC95:
	.ascii "MathSquareRoot\0"
LC96:
	.ascii "MathTg\0"
LC97:
	.ascii "TimerGetElapsedTime\0"
	.align 4
LC98:
	.ascii "ArrayClearMemoryAfterConvertsToStrings\0"
LC99:
	.ascii "ArrayDelete\0"
LC100:
	.ascii "ArrayDeleteAll\0"
LC101:
	.ascii "ArrayItemAppend\0"
LC102:
	.ascii "ArrayItemInsert\0"
LC103:
	.ascii "ArrayItemRemove\0"
LC104:
	.ascii "ArrayItemSet\0"
LC105:
	.ascii "Exit\0"
LC106:
	.ascii "FileClose\0"
LC107:
	.ascii "FileCloseAll\0"
LC108:
	.ascii "FileDelete\0"
LC109:
	.ascii "FileWrite\0"
LC110:
	.ascii "Show\0"
LC111:
	.ascii "TimerStart\0"
LC112:
	.ascii "APPLICATION_PATH\0"
LC113:
	.ascii "use \0"
LC114:
	.ascii "\"\"\0"
	.align 4
LC115:
	.ascii "Invalid format of path on line \0"
LC116:
	.ascii "lib\0"
LC117:
	.ascii ".a\0"
LC118:
	.ascii ".o\0"
LC119:
	.ascii "procedure \0"
LC120:
	.ascii "Separator not found on line \0"
LC121:
	.ascii "Invalid identifier \"\0"
LC122:
	.ascii "function \0"
LC123:
	.ascii "string \0"
	.align 4
LC124:
	.ascii "Invalid format of string on line \0"
LC125:
	.ascii "push_s\0"
LC126:
	.ascii "pop\0"
LC127:
	.ascii "let \0"
LC128:
	.ascii "label \0"
LC129:
	.ascii "lbl\0"
LC130:
	.ascii "go to \0"
LC131:
	.ascii "jmp\0"
LC132:
	.ascii "if \0"
LC133:
	.ascii "then\0"
LC134:
	.ascii "end_of_condition\0"
LC135:
	.ascii "je\0"
LC136:
	.ascii "clr_stck\0"
	.text
	.globl	__Z7CompileRKSt3mapIjSsSt4lessIjESaISt4pairIKjSsEEERKS_ISsfS0_ISsESaIS2_IKSsfEEERKS_ISsSsS9_SaIS2_ISA_SsEEE
	.def	__Z7CompileRKSt3mapIjSsSt4lessIjESaISt4pairIKjSsEEERKS_ISsfS0_ISsESaIS2_IKSsfEEERKS_ISsSsS9_SaIS2_ISA_SsEEE;	.scl	2;	.type	32;	.endef
__Z7CompileRKSt3mapIjSsSt4lessIjESaISt4pairIKjSsEEERKS_ISsfS0_ISsESaIS2_IKSsfEEERKS_ISsSsS9_SaIS2_ISA_SsEEE:
LFB1870:
	.cfi_startproc
	.cfi_personality 0,___gxx_personality_v0
	.cfi_lsda 0,LLSDA1870
	pushl	%ebp
	.cfi_def_cfa_offset 8
	.cfi_offset 5, -8
	movl	%esp, %ebp
	.cfi_def_cfa_register 5
	pushl	%edi
	pushl	%esi
	pushl	%ebx
	subl	$1324, %esp
	movl	8(%ebp), %eax
	movl	%eax, (%esp)
LEHB345:
	.cfi_offset 3, -20
	.cfi_offset 6, -16
	.cfi_offset 7, -12
	call	__ZN14ByteCodeModuleC1Ev
LEHE345:
	leal	-1129(%ebp), %eax
	movl	%eax, (%esp)
	call	__ZNSaIcEC1Ev
	leal	-1129(%ebp), %eax
	movl	%eax, 8(%esp)
	movl	$LC68, 4(%esp)
	leal	-1136(%ebp), %eax
	movl	%eax, (%esp)
LEHB346:
	call	__ZNSsC1EPKcRKSaIcE
LEHE346:
	movl	8(%ebp), %eax
	leal	56(%eax), %edx
	leal	-1136(%ebp), %eax
	movl	%eax, 4(%esp)
	movl	%edx, (%esp)
LEHB347:
	call	__ZNSt3mapISsjSt4lessISsESaISt4pairIKSsjEEEixERS3_
LEHE347:
	movl	$1, (%eax)
	leal	-1136(%ebp), %eax
	movl	%eax, (%esp)
LEHB348:
	call	__ZNSsD1Ev
LEHE348:
	leal	-1129(%ebp), %eax
	movl	%eax, (%esp)
	call	__ZNSaIcED1Ev
	leal	-1121(%ebp), %eax
	movl	%eax, (%esp)
	call	__ZNSaIcEC1Ev
	leal	-1121(%ebp), %eax
	movl	%eax, 8(%esp)
	movl	$LC44, 4(%esp)
	leal	-1128(%ebp), %eax
	movl	%eax, (%esp)
LEHB349:
	call	__ZNSsC1EPKcRKSaIcE
LEHE349:
	movl	8(%ebp), %eax
	leal	56(%eax), %edx
	leal	-1128(%ebp), %eax
	movl	%eax, 4(%esp)
	movl	%edx, (%esp)
LEHB350:
	call	__ZNSt3mapISsjSt4lessISsESaISt4pairIKSsjEEEixERS3_
LEHE350:
	movl	$2, (%eax)
	leal	-1128(%ebp), %eax
	movl	%eax, (%esp)
LEHB351:
	call	__ZNSsD1Ev
LEHE351:
	leal	-1121(%ebp), %eax
	movl	%eax, (%esp)
	call	__ZNSaIcED1Ev
	leal	-1113(%ebp), %eax
	movl	%eax, (%esp)
	call	__ZNSaIcEC1Ev
	leal	-1113(%ebp), %eax
	movl	%eax, 8(%esp)
	movl	$LC75, 4(%esp)
	leal	-1120(%ebp), %eax
	movl	%eax, (%esp)
LEHB352:
	call	__ZNSsC1EPKcRKSaIcE
LEHE352:
	movl	8(%ebp), %eax
	leal	56(%eax), %edx
	leal	-1120(%ebp), %eax
	movl	%eax, 4(%esp)
	movl	%edx, (%esp)
LEHB353:
	call	__ZNSt3mapISsjSt4lessISsESaISt4pairIKSsjEEEixERS3_
LEHE353:
	movl	$1, (%eax)
	leal	-1120(%ebp), %eax
	movl	%eax, (%esp)
LEHB354:
	call	__ZNSsD1Ev
LEHE354:
	leal	-1113(%ebp), %eax
	movl	%eax, (%esp)
	call	__ZNSaIcED1Ev
	leal	-1105(%ebp), %eax
	movl	%eax, (%esp)
	call	__ZNSaIcEC1Ev
	leal	-1105(%ebp), %eax
	movl	%eax, 8(%esp)
	movl	$LC51, 4(%esp)
	leal	-1112(%ebp), %eax
	movl	%eax, (%esp)
LEHB355:
	call	__ZNSsC1EPKcRKSaIcE
LEHE355:
	movl	8(%ebp), %eax
	leal	56(%eax), %edx
	leal	-1112(%ebp), %eax
	movl	%eax, 4(%esp)
	movl	%edx, (%esp)
LEHB356:
	call	__ZNSt3mapISsjSt4lessISsESaISt4pairIKSsjEEEixERS3_
LEHE356:
	movl	$1, (%eax)
	leal	-1112(%ebp), %eax
	movl	%eax, (%esp)
LEHB357:
	call	__ZNSsD1Ev
LEHE357:
	leal	-1105(%ebp), %eax
	movl	%eax, (%esp)
	call	__ZNSaIcED1Ev
	leal	-1097(%ebp), %eax
	movl	%eax, (%esp)
	call	__ZNSaIcEC1Ev
	leal	-1097(%ebp), %eax
	movl	%eax, 8(%esp)
	movl	$LC76, 4(%esp)
	leal	-1104(%ebp), %eax
	movl	%eax, (%esp)
LEHB358:
	call	__ZNSsC1EPKcRKSaIcE
LEHE358:
	movl	8(%ebp), %eax
	leal	56(%eax), %edx
	leal	-1104(%ebp), %eax
	movl	%eax, 4(%esp)
	movl	%edx, (%esp)
LEHB359:
	call	__ZNSt3mapISsjSt4lessISsESaISt4pairIKSsjEEEixERS3_
LEHE359:
	movl	$1, (%eax)
	leal	-1104(%ebp), %eax
	movl	%eax, (%esp)
LEHB360:
	call	__ZNSsD1Ev
LEHE360:
	leal	-1097(%ebp), %eax
	movl	%eax, (%esp)
	call	__ZNSaIcED1Ev
	leal	-1089(%ebp), %eax
	movl	%eax, (%esp)
	call	__ZNSaIcEC1Ev
	leal	-1089(%ebp), %eax
	movl	%eax, 8(%esp)
	movl	$LC77, 4(%esp)
	leal	-1096(%ebp), %eax
	movl	%eax, (%esp)
LEHB361:
	call	__ZNSsC1EPKcRKSaIcE
LEHE361:
	movl	8(%ebp), %eax
	leal	56(%eax), %edx
	leal	-1096(%ebp), %eax
	movl	%eax, 4(%esp)
	movl	%edx, (%esp)
LEHB362:
	call	__ZNSt3mapISsjSt4lessISsESaISt4pairIKSsjEEEixERS3_
LEHE362:
	movl	$1, (%eax)
	leal	-1096(%ebp), %eax
	movl	%eax, (%esp)
LEHB363:
	call	__ZNSsD1Ev
LEHE363:
	leal	-1089(%ebp), %eax
	movl	%eax, (%esp)
	call	__ZNSaIcED1Ev
	leal	-1081(%ebp), %eax
	movl	%eax, (%esp)
	call	__ZNSaIcEC1Ev
	leal	-1081(%ebp), %eax
	movl	%eax, 8(%esp)
	movl	$LC78, 4(%esp)
	leal	-1088(%ebp), %eax
	movl	%eax, (%esp)
LEHB364:
	call	__ZNSsC1EPKcRKSaIcE
LEHE364:
	movl	8(%ebp), %eax
	leal	56(%eax), %edx
	leal	-1088(%ebp), %eax
	movl	%eax, 4(%esp)
	movl	%edx, (%esp)
LEHB365:
	call	__ZNSt3mapISsjSt4lessISsESaISt4pairIKSsjEEEixERS3_
LEHE365:
	movl	$2, (%eax)
	leal	-1088(%ebp), %eax
	movl	%eax, (%esp)
LEHB366:
	call	__ZNSsD1Ev
LEHE366:
	leal	-1081(%ebp), %eax
	movl	%eax, (%esp)
	call	__ZNSaIcED1Ev
	leal	-1073(%ebp), %eax
	movl	%eax, (%esp)
	call	__ZNSaIcEC1Ev
	leal	-1073(%ebp), %eax
	movl	%eax, 8(%esp)
	movl	$LC79, 4(%esp)
	leal	-1080(%ebp), %eax
	movl	%eax, (%esp)
LEHB367:
	call	__ZNSsC1EPKcRKSaIcE
LEHE367:
	movl	8(%ebp), %eax
	leal	56(%eax), %edx
	leal	-1080(%ebp), %eax
	movl	%eax, 4(%esp)
	movl	%edx, (%esp)
LEHB368:
	call	__ZNSt3mapISsjSt4lessISsESaISt4pairIKSsjEEEixERS3_
LEHE368:
	movl	$2, (%eax)
	leal	-1080(%ebp), %eax
	movl	%eax, (%esp)
LEHB369:
	call	__ZNSsD1Ev
LEHE369:
	leal	-1073(%ebp), %eax
	movl	%eax, (%esp)
	call	__ZNSaIcED1Ev
	leal	-1065(%ebp), %eax
	movl	%eax, (%esp)
	call	__ZNSaIcEC1Ev
	leal	-1065(%ebp), %eax
	movl	%eax, 8(%esp)
	movl	$LC80, 4(%esp)
	leal	-1072(%ebp), %eax
	movl	%eax, (%esp)
LEHB370:
	call	__ZNSsC1EPKcRKSaIcE
LEHE370:
	movl	8(%ebp), %eax
	leal	56(%eax), %edx
	leal	-1072(%ebp), %eax
	movl	%eax, 4(%esp)
	movl	%edx, (%esp)
LEHB371:
	call	__ZNSt3mapISsjSt4lessISsESaISt4pairIKSsjEEEixERS3_
LEHE371:
	movl	$2, (%eax)
	leal	-1072(%ebp), %eax
	movl	%eax, (%esp)
LEHB372:
	call	__ZNSsD1Ev
LEHE372:
	leal	-1065(%ebp), %eax
	movl	%eax, (%esp)
	call	__ZNSaIcED1Ev
	leal	-1057(%ebp), %eax
	movl	%eax, (%esp)
	call	__ZNSaIcEC1Ev
	leal	-1057(%ebp), %eax
	movl	%eax, 8(%esp)
	movl	$LC81, 4(%esp)
	leal	-1064(%ebp), %eax
	movl	%eax, (%esp)
LEHB373:
	call	__ZNSsC1EPKcRKSaIcE
LEHE373:
	movl	8(%ebp), %eax
	leal	56(%eax), %edx
	leal	-1064(%ebp), %eax
	movl	%eax, 4(%esp)
	movl	%edx, (%esp)
LEHB374:
	call	__ZNSt3mapISsjSt4lessISsESaISt4pairIKSsjEEEixERS3_
LEHE374:
	movl	$1, (%eax)
	leal	-1064(%ebp), %eax
	movl	%eax, (%esp)
LEHB375:
	call	__ZNSsD1Ev
LEHE375:
	leal	-1057(%ebp), %eax
	movl	%eax, (%esp)
	call	__ZNSaIcED1Ev
	leal	-1049(%ebp), %eax
	movl	%eax, (%esp)
	call	__ZNSaIcEC1Ev
	leal	-1049(%ebp), %eax
	movl	%eax, 8(%esp)
	movl	$LC82, 4(%esp)
	leal	-1056(%ebp), %eax
	movl	%eax, (%esp)
LEHB376:
	call	__ZNSsC1EPKcRKSaIcE
LEHE376:
	movl	8(%ebp), %eax
	leal	56(%eax), %edx
	leal	-1056(%ebp), %eax
	movl	%eax, 4(%esp)
	movl	%edx, (%esp)
LEHB377:
	call	__ZNSt3mapISsjSt4lessISsESaISt4pairIKSsjEEEixERS3_
LEHE377:
	movl	$2, (%eax)
	leal	-1056(%ebp), %eax
	movl	%eax, (%esp)
LEHB378:
	call	__ZNSsD1Ev
LEHE378:
	leal	-1049(%ebp), %eax
	movl	%eax, (%esp)
	call	__ZNSaIcED1Ev
	leal	-1041(%ebp), %eax
	movl	%eax, (%esp)
	call	__ZNSaIcEC1Ev
	leal	-1041(%ebp), %eax
	movl	%eax, 8(%esp)
	movl	$LC83, 4(%esp)
	leal	-1048(%ebp), %eax
	movl	%eax, (%esp)
LEHB379:
	call	__ZNSsC1EPKcRKSaIcE
LEHE379:
	movl	8(%ebp), %eax
	leal	56(%eax), %edx
	leal	-1048(%ebp), %eax
	movl	%eax, 4(%esp)
	movl	%edx, (%esp)
LEHB380:
	call	__ZNSt3mapISsjSt4lessISsESaISt4pairIKSsjEEEixERS3_
LEHE380:
	movl	$1, (%eax)
	leal	-1048(%ebp), %eax
	movl	%eax, (%esp)
LEHB381:
	call	__ZNSsD1Ev
LEHE381:
	leal	-1041(%ebp), %eax
	movl	%eax, (%esp)
	call	__ZNSaIcED1Ev
	leal	-1033(%ebp), %eax
	movl	%eax, (%esp)
	call	__ZNSaIcEC1Ev
	leal	-1033(%ebp), %eax
	movl	%eax, 8(%esp)
	movl	$LC84, 4(%esp)
	leal	-1040(%ebp), %eax
	movl	%eax, (%esp)
LEHB382:
	call	__ZNSsC1EPKcRKSaIcE
LEHE382:
	movl	8(%ebp), %eax
	leal	56(%eax), %edx
	leal	-1040(%ebp), %eax
	movl	%eax, 4(%esp)
	movl	%edx, (%esp)
LEHB383:
	call	__ZNSt3mapISsjSt4lessISsESaISt4pairIKSsjEEEixERS3_
LEHE383:
	movl	$1, (%eax)
	leal	-1040(%ebp), %eax
	movl	%eax, (%esp)
LEHB384:
	call	__ZNSsD1Ev
LEHE384:
	leal	-1033(%ebp), %eax
	movl	%eax, (%esp)
	call	__ZNSaIcED1Ev
	leal	-1025(%ebp), %eax
	movl	%eax, (%esp)
	call	__ZNSaIcEC1Ev
	leal	-1025(%ebp), %eax
	movl	%eax, 8(%esp)
	movl	$LC85, 4(%esp)
	leal	-1032(%ebp), %eax
	movl	%eax, (%esp)
LEHB385:
	call	__ZNSsC1EPKcRKSaIcE
LEHE385:
	movl	8(%ebp), %eax
	leal	56(%eax), %edx
	leal	-1032(%ebp), %eax
	movl	%eax, 4(%esp)
	movl	%edx, (%esp)
LEHB386:
	call	__ZNSt3mapISsjSt4lessISsESaISt4pairIKSsjEEEixERS3_
LEHE386:
	movl	$1, (%eax)
	leal	-1032(%ebp), %eax
	movl	%eax, (%esp)
LEHB387:
	call	__ZNSsD1Ev
LEHE387:
	leal	-1025(%ebp), %eax
	movl	%eax, (%esp)
	call	__ZNSaIcED1Ev
	leal	-1017(%ebp), %eax
	movl	%eax, (%esp)
	call	__ZNSaIcEC1Ev
	leal	-1017(%ebp), %eax
	movl	%eax, 8(%esp)
	movl	$LC86, 4(%esp)
	leal	-1024(%ebp), %eax
	movl	%eax, (%esp)
LEHB388:
	call	__ZNSsC1EPKcRKSaIcE
LEHE388:
	movl	8(%ebp), %eax
	leal	56(%eax), %edx
	leal	-1024(%ebp), %eax
	movl	%eax, 4(%esp)
	movl	%edx, (%esp)
LEHB389:
	call	__ZNSt3mapISsjSt4lessISsESaISt4pairIKSsjEEEixERS3_
LEHE389:
	movl	$1, (%eax)
	leal	-1024(%ebp), %eax
	movl	%eax, (%esp)
LEHB390:
	call	__ZNSsD1Ev
LEHE390:
	leal	-1017(%ebp), %eax
	movl	%eax, (%esp)
	call	__ZNSaIcED1Ev
	leal	-1009(%ebp), %eax
	movl	%eax, (%esp)
	call	__ZNSaIcEC1Ev
	leal	-1009(%ebp), %eax
	movl	%eax, 8(%esp)
	movl	$LC87, 4(%esp)
	leal	-1016(%ebp), %eax
	movl	%eax, (%esp)
LEHB391:
	call	__ZNSsC1EPKcRKSaIcE
LEHE391:
	movl	8(%ebp), %eax
	leal	56(%eax), %edx
	leal	-1016(%ebp), %eax
	movl	%eax, 4(%esp)
	movl	%edx, (%esp)
LEHB392:
	call	__ZNSt3mapISsjSt4lessISsESaISt4pairIKSsjEEEixERS3_
LEHE392:
	movl	$1, (%eax)
	leal	-1016(%ebp), %eax
	movl	%eax, (%esp)
LEHB393:
	call	__ZNSsD1Ev
LEHE393:
	leal	-1009(%ebp), %eax
	movl	%eax, (%esp)
	call	__ZNSaIcED1Ev
	leal	-1001(%ebp), %eax
	movl	%eax, (%esp)
	call	__ZNSaIcEC1Ev
	leal	-1001(%ebp), %eax
	movl	%eax, 8(%esp)
	movl	$LC88, 4(%esp)
	leal	-1008(%ebp), %eax
	movl	%eax, (%esp)
LEHB394:
	call	__ZNSsC1EPKcRKSaIcE
LEHE394:
	movl	8(%ebp), %eax
	leal	56(%eax), %edx
	leal	-1008(%ebp), %eax
	movl	%eax, 4(%esp)
	movl	%edx, (%esp)
LEHB395:
	call	__ZNSt3mapISsjSt4lessISsESaISt4pairIKSsjEEEixERS3_
LEHE395:
	movl	$1, (%eax)
	leal	-1008(%ebp), %eax
	movl	%eax, (%esp)
LEHB396:
	call	__ZNSsD1Ev
LEHE396:
	leal	-1001(%ebp), %eax
	movl	%eax, (%esp)
	call	__ZNSaIcED1Ev
	leal	-993(%ebp), %eax
	movl	%eax, (%esp)
	call	__ZNSaIcEC1Ev
	leal	-993(%ebp), %eax
	movl	%eax, 8(%esp)
	movl	$LC89, 4(%esp)
	leal	-1000(%ebp), %eax
	movl	%eax, (%esp)
LEHB397:
	call	__ZNSsC1EPKcRKSaIcE
LEHE397:
	movl	8(%ebp), %eax
	leal	56(%eax), %edx
	leal	-1000(%ebp), %eax
	movl	%eax, 4(%esp)
	movl	%edx, (%esp)
LEHB398:
	call	__ZNSt3mapISsjSt4lessISsESaISt4pairIKSsjEEEixERS3_
LEHE398:
	movl	$1, (%eax)
	leal	-1000(%ebp), %eax
	movl	%eax, (%esp)
LEHB399:
	call	__ZNSsD1Ev
LEHE399:
	leal	-993(%ebp), %eax
	movl	%eax, (%esp)
	call	__ZNSaIcED1Ev
	leal	-985(%ebp), %eax
	movl	%eax, (%esp)
	call	__ZNSaIcEC1Ev
	leal	-985(%ebp), %eax
	movl	%eax, 8(%esp)
	movl	$LC90, 4(%esp)
	leal	-992(%ebp), %eax
	movl	%eax, (%esp)
LEHB400:
	call	__ZNSsC1EPKcRKSaIcE
LEHE400:
	movl	8(%ebp), %eax
	leal	56(%eax), %edx
	leal	-992(%ebp), %eax
	movl	%eax, 4(%esp)
	movl	%edx, (%esp)
LEHB401:
	call	__ZNSt3mapISsjSt4lessISsESaISt4pairIKSsjEEEixERS3_
LEHE401:
	movl	$1, (%eax)
	leal	-992(%ebp), %eax
	movl	%eax, (%esp)
LEHB402:
	call	__ZNSsD1Ev
LEHE402:
	leal	-985(%ebp), %eax
	movl	%eax, (%esp)
	call	__ZNSaIcED1Ev
	leal	-977(%ebp), %eax
	movl	%eax, (%esp)
	call	__ZNSaIcEC1Ev
	leal	-977(%ebp), %eax
	movl	%eax, 8(%esp)
	movl	$LC91, 4(%esp)
	leal	-984(%ebp), %eax
	movl	%eax, (%esp)
LEHB403:
	call	__ZNSsC1EPKcRKSaIcE
LEHE403:
	movl	8(%ebp), %eax
	leal	56(%eax), %edx
	leal	-984(%ebp), %eax
	movl	%eax, 4(%esp)
	movl	%edx, (%esp)
LEHB404:
	call	__ZNSt3mapISsjSt4lessISsESaISt4pairIKSsjEEEixERS3_
LEHE404:
	movl	$1, (%eax)
	leal	-984(%ebp), %eax
	movl	%eax, (%esp)
LEHB405:
	call	__ZNSsD1Ev
LEHE405:
	leal	-977(%ebp), %eax
	movl	%eax, (%esp)
	call	__ZNSaIcED1Ev
	leal	-969(%ebp), %eax
	movl	%eax, (%esp)
	call	__ZNSaIcEC1Ev
	leal	-969(%ebp), %eax
	movl	%eax, 8(%esp)
	movl	$LC92, 4(%esp)
	leal	-976(%ebp), %eax
	movl	%eax, (%esp)
LEHB406:
	call	__ZNSsC1EPKcRKSaIcE
LEHE406:
	movl	8(%ebp), %eax
	leal	56(%eax), %edx
	leal	-976(%ebp), %eax
	movl	%eax, 4(%esp)
	movl	%edx, (%esp)
LEHB407:
	call	__ZNSt3mapISsjSt4lessISsESaISt4pairIKSsjEEEixERS3_
LEHE407:
	movl	$2, (%eax)
	leal	-976(%ebp), %eax
	movl	%eax, (%esp)
LEHB408:
	call	__ZNSsD1Ev
LEHE408:
	leal	-969(%ebp), %eax
	movl	%eax, (%esp)
	call	__ZNSaIcED1Ev
	leal	-961(%ebp), %eax
	movl	%eax, (%esp)
	call	__ZNSaIcEC1Ev
	leal	-961(%ebp), %eax
	movl	%eax, 8(%esp)
	movl	$LC93, 4(%esp)
	leal	-968(%ebp), %eax
	movl	%eax, (%esp)
LEHB409:
	call	__ZNSsC1EPKcRKSaIcE
LEHE409:
	movl	8(%ebp), %eax
	leal	56(%eax), %edx
	leal	-968(%ebp), %eax
	movl	%eax, 4(%esp)
	movl	%edx, (%esp)
LEHB410:
	call	__ZNSt3mapISsjSt4lessISsESaISt4pairIKSsjEEEixERS3_
LEHE410:
	movl	$2, (%eax)
	leal	-968(%ebp), %eax
	movl	%eax, (%esp)
LEHB411:
	call	__ZNSsD1Ev
LEHE411:
	leal	-961(%ebp), %eax
	movl	%eax, (%esp)
	call	__ZNSaIcED1Ev
	leal	-953(%ebp), %eax
	movl	%eax, (%esp)
	call	__ZNSaIcEC1Ev
	leal	-953(%ebp), %eax
	movl	%eax, 8(%esp)
	movl	$LC94, 4(%esp)
	leal	-960(%ebp), %eax
	movl	%eax, (%esp)
LEHB412:
	call	__ZNSsC1EPKcRKSaIcE
LEHE412:
	movl	8(%ebp), %eax
	leal	56(%eax), %edx
	leal	-960(%ebp), %eax
	movl	%eax, 4(%esp)
	movl	%edx, (%esp)
LEHB413:
	call	__ZNSt3mapISsjSt4lessISsESaISt4pairIKSsjEEEixERS3_
LEHE413:
	movl	$1, (%eax)
	leal	-960(%ebp), %eax
	movl	%eax, (%esp)
LEHB414:
	call	__ZNSsD1Ev
LEHE414:
	leal	-953(%ebp), %eax
	movl	%eax, (%esp)
	call	__ZNSaIcED1Ev
	leal	-945(%ebp), %eax
	movl	%eax, (%esp)
	call	__ZNSaIcEC1Ev
	leal	-945(%ebp), %eax
	movl	%eax, 8(%esp)
	movl	$LC95, 4(%esp)
	leal	-952(%ebp), %eax
	movl	%eax, (%esp)
LEHB415:
	call	__ZNSsC1EPKcRKSaIcE
LEHE415:
	movl	8(%ebp), %eax
	leal	56(%eax), %edx
	leal	-952(%ebp), %eax
	movl	%eax, 4(%esp)
	movl	%edx, (%esp)
LEHB416:
	call	__ZNSt3mapISsjSt4lessISsESaISt4pairIKSsjEEEixERS3_
LEHE416:
	movl	$1, (%eax)
	leal	-952(%ebp), %eax
	movl	%eax, (%esp)
LEHB417:
	call	__ZNSsD1Ev
LEHE417:
	leal	-945(%ebp), %eax
	movl	%eax, (%esp)
	call	__ZNSaIcED1Ev
	leal	-937(%ebp), %eax
	movl	%eax, (%esp)
	call	__ZNSaIcEC1Ev
	leal	-937(%ebp), %eax
	movl	%eax, 8(%esp)
	movl	$LC96, 4(%esp)
	leal	-944(%ebp), %eax
	movl	%eax, (%esp)
LEHB418:
	call	__ZNSsC1EPKcRKSaIcE
LEHE418:
	movl	8(%ebp), %eax
	leal	56(%eax), %edx
	leal	-944(%ebp), %eax
	movl	%eax, 4(%esp)
	movl	%edx, (%esp)
LEHB419:
	call	__ZNSt3mapISsjSt4lessISsESaISt4pairIKSsjEEEixERS3_
LEHE419:
	movl	$1, (%eax)
	leal	-944(%ebp), %eax
	movl	%eax, (%esp)
LEHB420:
	call	__ZNSsD1Ev
LEHE420:
	leal	-937(%ebp), %eax
	movl	%eax, (%esp)
	call	__ZNSaIcED1Ev
	leal	-929(%ebp), %eax
	movl	%eax, (%esp)
	call	__ZNSaIcEC1Ev
	leal	-929(%ebp), %eax
	movl	%eax, 8(%esp)
	movl	$LC42, 4(%esp)
	leal	-936(%ebp), %eax
	movl	%eax, (%esp)
LEHB421:
	call	__ZNSsC1EPKcRKSaIcE
LEHE421:
	movl	8(%ebp), %eax
	leal	56(%eax), %edx
	leal	-936(%ebp), %eax
	movl	%eax, 4(%esp)
	movl	%edx, (%esp)
LEHB422:
	call	__ZNSt3mapISsjSt4lessISsESaISt4pairIKSsjEEEixERS3_
LEHE422:
	movl	$2, (%eax)
	leal	-936(%ebp), %eax
	movl	%eax, (%esp)
LEHB423:
	call	__ZNSsD1Ev
LEHE423:
	leal	-929(%ebp), %eax
	movl	%eax, (%esp)
	call	__ZNSaIcED1Ev
	leal	-921(%ebp), %eax
	movl	%eax, (%esp)
	call	__ZNSaIcEC1Ev
	leal	-921(%ebp), %eax
	movl	%eax, 8(%esp)
	movl	$LC48, 4(%esp)
	leal	-928(%ebp), %eax
	movl	%eax, (%esp)
LEHB424:
	call	__ZNSsC1EPKcRKSaIcE
LEHE424:
	movl	8(%ebp), %eax
	leal	56(%eax), %edx
	leal	-928(%ebp), %eax
	movl	%eax, 4(%esp)
	movl	%edx, (%esp)
LEHB425:
	call	__ZNSt3mapISsjSt4lessISsESaISt4pairIKSsjEEEixERS3_
LEHE425:
	movl	$2, (%eax)
	leal	-928(%ebp), %eax
	movl	%eax, (%esp)
LEHB426:
	call	__ZNSsD1Ev
LEHE426:
	leal	-921(%ebp), %eax
	movl	%eax, (%esp)
	call	__ZNSaIcED1Ev
	leal	-913(%ebp), %eax
	movl	%eax, (%esp)
	call	__ZNSaIcEC1Ev
	leal	-913(%ebp), %eax
	movl	%eax, 8(%esp)
	movl	$LC41, 4(%esp)
	leal	-920(%ebp), %eax
	movl	%eax, (%esp)
LEHB427:
	call	__ZNSsC1EPKcRKSaIcE
LEHE427:
	movl	8(%ebp), %eax
	leal	56(%eax), %edx
	leal	-920(%ebp), %eax
	movl	%eax, 4(%esp)
	movl	%edx, (%esp)
LEHB428:
	call	__ZNSt3mapISsjSt4lessISsESaISt4pairIKSsjEEEixERS3_
LEHE428:
	movl	$2, (%eax)
	leal	-920(%ebp), %eax
	movl	%eax, (%esp)
LEHB429:
	call	__ZNSsD1Ev
LEHE429:
	leal	-913(%ebp), %eax
	movl	%eax, (%esp)
	call	__ZNSaIcED1Ev
	leal	-905(%ebp), %eax
	movl	%eax, (%esp)
	call	__ZNSaIcEC1Ev
	leal	-905(%ebp), %eax
	movl	%eax, 8(%esp)
	movl	$LC47, 4(%esp)
	leal	-912(%ebp), %eax
	movl	%eax, (%esp)
LEHB430:
	call	__ZNSsC1EPKcRKSaIcE
LEHE430:
	movl	8(%ebp), %eax
	leal	56(%eax), %edx
	leal	-912(%ebp), %eax
	movl	%eax, 4(%esp)
	movl	%edx, (%esp)
LEHB431:
	call	__ZNSt3mapISsjSt4lessISsESaISt4pairIKSsjEEEixERS3_
LEHE431:
	movl	$2, (%eax)
	leal	-912(%ebp), %eax
	movl	%eax, (%esp)
LEHB432:
	call	__ZNSsD1Ev
LEHE432:
	leal	-905(%ebp), %eax
	movl	%eax, (%esp)
	call	__ZNSaIcED1Ev
	leal	-897(%ebp), %eax
	movl	%eax, (%esp)
	call	__ZNSaIcEC1Ev
	leal	-897(%ebp), %eax
	movl	%eax, 8(%esp)
	movl	$LC46, 4(%esp)
	leal	-904(%ebp), %eax
	movl	%eax, (%esp)
LEHB433:
	call	__ZNSsC1EPKcRKSaIcE
LEHE433:
	movl	8(%ebp), %eax
	leal	56(%eax), %edx
	leal	-904(%ebp), %eax
	movl	%eax, 4(%esp)
	movl	%edx, (%esp)
LEHB434:
	call	__ZNSt3mapISsjSt4lessISsESaISt4pairIKSsjEEEixERS3_
LEHE434:
	movl	$2, (%eax)
	leal	-904(%ebp), %eax
	movl	%eax, (%esp)
LEHB435:
	call	__ZNSsD1Ev
LEHE435:
	leal	-897(%ebp), %eax
	movl	%eax, (%esp)
	call	__ZNSaIcED1Ev
	leal	-889(%ebp), %eax
	movl	%eax, (%esp)
	call	__ZNSaIcEC1Ev
	leal	-889(%ebp), %eax
	movl	%eax, 8(%esp)
	movl	$LC45, 4(%esp)
	leal	-896(%ebp), %eax
	movl	%eax, (%esp)
LEHB436:
	call	__ZNSsC1EPKcRKSaIcE
LEHE436:
	movl	8(%ebp), %eax
	leal	56(%eax), %edx
	leal	-896(%ebp), %eax
	movl	%eax, 4(%esp)
	movl	%edx, (%esp)
LEHB437:
	call	__ZNSt3mapISsjSt4lessISsESaISt4pairIKSsjEEEixERS3_
LEHE437:
	movl	$2, (%eax)
	leal	-896(%ebp), %eax
	movl	%eax, (%esp)
LEHB438:
	call	__ZNSsD1Ev
LEHE438:
	leal	-889(%ebp), %eax
	movl	%eax, (%esp)
	call	__ZNSaIcED1Ev
	leal	-881(%ebp), %eax
	movl	%eax, (%esp)
	call	__ZNSaIcEC1Ev
	leal	-881(%ebp), %eax
	movl	%eax, 8(%esp)
	movl	$LC40, 4(%esp)
	leal	-888(%ebp), %eax
	movl	%eax, (%esp)
LEHB439:
	call	__ZNSsC1EPKcRKSaIcE
LEHE439:
	movl	8(%ebp), %eax
	leal	56(%eax), %edx
	leal	-888(%ebp), %eax
	movl	%eax, 4(%esp)
	movl	%edx, (%esp)
LEHB440:
	call	__ZNSt3mapISsjSt4lessISsESaISt4pairIKSsjEEEixERS3_
LEHE440:
	movl	$2, (%eax)
	leal	-888(%ebp), %eax
	movl	%eax, (%esp)
LEHB441:
	call	__ZNSsD1Ev
LEHE441:
	leal	-881(%ebp), %eax
	movl	%eax, (%esp)
	call	__ZNSaIcED1Ev
	leal	-873(%ebp), %eax
	movl	%eax, (%esp)
	call	__ZNSaIcEC1Ev
	leal	-873(%ebp), %eax
	movl	%eax, 8(%esp)
	movl	$LC39, 4(%esp)
	leal	-880(%ebp), %eax
	movl	%eax, (%esp)
LEHB442:
	call	__ZNSsC1EPKcRKSaIcE
LEHE442:
	movl	8(%ebp), %eax
	leal	56(%eax), %edx
	leal	-880(%ebp), %eax
	movl	%eax, 4(%esp)
	movl	%edx, (%esp)
LEHB443:
	call	__ZNSt3mapISsjSt4lessISsESaISt4pairIKSsjEEEixERS3_
LEHE443:
	movl	$1, (%eax)
	leal	-880(%ebp), %eax
	movl	%eax, (%esp)
LEHB444:
	call	__ZNSsD1Ev
LEHE444:
	leal	-873(%ebp), %eax
	movl	%eax, (%esp)
	call	__ZNSaIcED1Ev
	leal	-865(%ebp), %eax
	movl	%eax, (%esp)
	call	__ZNSaIcEC1Ev
	leal	-865(%ebp), %eax
	movl	%eax, 8(%esp)
	movl	$LC49, 4(%esp)
	leal	-872(%ebp), %eax
	movl	%eax, (%esp)
LEHB445:
	call	__ZNSsC1EPKcRKSaIcE
LEHE445:
	movl	8(%ebp), %eax
	leal	56(%eax), %edx
	leal	-872(%ebp), %eax
	movl	%eax, 4(%esp)
	movl	%edx, (%esp)
LEHB446:
	call	__ZNSt3mapISsjSt4lessISsESaISt4pairIKSsjEEEixERS3_
LEHE446:
	movl	$2, (%eax)
	leal	-872(%ebp), %eax
	movl	%eax, (%esp)
LEHB447:
	call	__ZNSsD1Ev
LEHE447:
	leal	-865(%ebp), %eax
	movl	%eax, (%esp)
	call	__ZNSaIcED1Ev
	leal	-857(%ebp), %eax
	movl	%eax, (%esp)
	call	__ZNSaIcEC1Ev
	leal	-857(%ebp), %eax
	movl	%eax, 8(%esp)
	movl	$LC43, 4(%esp)
	leal	-864(%ebp), %eax
	movl	%eax, (%esp)
LEHB448:
	call	__ZNSsC1EPKcRKSaIcE
LEHE448:
	movl	8(%ebp), %eax
	leal	56(%eax), %edx
	leal	-864(%ebp), %eax
	movl	%eax, 4(%esp)
	movl	%edx, (%esp)
LEHB449:
	call	__ZNSt3mapISsjSt4lessISsESaISt4pairIKSsjEEEixERS3_
LEHE449:
	movl	$2, (%eax)
	leal	-864(%ebp), %eax
	movl	%eax, (%esp)
LEHB450:
	call	__ZNSsD1Ev
LEHE450:
	leal	-857(%ebp), %eax
	movl	%eax, (%esp)
	call	__ZNSaIcED1Ev
	leal	-849(%ebp), %eax
	movl	%eax, (%esp)
	call	__ZNSaIcEC1Ev
	leal	-849(%ebp), %eax
	movl	%eax, 8(%esp)
	movl	$LC97, 4(%esp)
	leal	-856(%ebp), %eax
	movl	%eax, (%esp)
LEHB451:
	call	__ZNSsC1EPKcRKSaIcE
LEHE451:
	movl	8(%ebp), %eax
	leal	56(%eax), %edx
	leal	-856(%ebp), %eax
	movl	%eax, 4(%esp)
	movl	%edx, (%esp)
LEHB452:
	call	__ZNSt3mapISsjSt4lessISsESaISt4pairIKSsjEEEixERS3_
LEHE452:
	movl	$0, (%eax)
	leal	-856(%ebp), %eax
	movl	%eax, (%esp)
LEHB453:
	call	__ZNSsD1Ev
LEHE453:
	leal	-849(%ebp), %eax
	movl	%eax, (%esp)
	call	__ZNSaIcED1Ev
	leal	-841(%ebp), %eax
	movl	%eax, (%esp)
	call	__ZNSaIcEC1Ev
	leal	-841(%ebp), %eax
	movl	%eax, 8(%esp)
	movl	$LC98, 4(%esp)
	leal	-848(%ebp), %eax
	movl	%eax, (%esp)
LEHB454:
	call	__ZNSsC1EPKcRKSaIcE
LEHE454:
	movl	8(%ebp), %eax
	leal	32(%eax), %edx
	leal	-848(%ebp), %eax
	movl	%eax, 4(%esp)
	movl	%edx, (%esp)
LEHB455:
	call	__ZNSt3mapISsjSt4lessISsESaISt4pairIKSsjEEEixERS3_
LEHE455:
	movl	$0, (%eax)
	leal	-848(%ebp), %eax
	movl	%eax, (%esp)
LEHB456:
	call	__ZNSsD1Ev
LEHE456:
	leal	-841(%ebp), %eax
	movl	%eax, (%esp)
	call	__ZNSaIcED1Ev
	leal	-833(%ebp), %eax
	movl	%eax, (%esp)
	call	__ZNSaIcEC1Ev
	leal	-833(%ebp), %eax
	movl	%eax, 8(%esp)
	movl	$LC99, 4(%esp)
	leal	-840(%ebp), %eax
	movl	%eax, (%esp)
LEHB457:
	call	__ZNSsC1EPKcRKSaIcE
LEHE457:
	movl	8(%ebp), %eax
	leal	32(%eax), %edx
	leal	-840(%ebp), %eax
	movl	%eax, 4(%esp)
	movl	%edx, (%esp)
LEHB458:
	call	__ZNSt3mapISsjSt4lessISsESaISt4pairIKSsjEEEixERS3_
LEHE458:
	movl	$1, (%eax)
	leal	-840(%ebp), %eax
	movl	%eax, (%esp)
LEHB459:
	call	__ZNSsD1Ev
LEHE459:
	leal	-833(%ebp), %eax
	movl	%eax, (%esp)
	call	__ZNSaIcED1Ev
	leal	-825(%ebp), %eax
	movl	%eax, (%esp)
	call	__ZNSaIcEC1Ev
	leal	-825(%ebp), %eax
	movl	%eax, 8(%esp)
	movl	$LC100, 4(%esp)
	leal	-832(%ebp), %eax
	movl	%eax, (%esp)
LEHB460:
	call	__ZNSsC1EPKcRKSaIcE
LEHE460:
	movl	8(%ebp), %eax
	leal	32(%eax), %edx
	leal	-832(%ebp), %eax
	movl	%eax, 4(%esp)
	movl	%edx, (%esp)
LEHB461:
	call	__ZNSt3mapISsjSt4lessISsESaISt4pairIKSsjEEEixERS3_
LEHE461:
	movl	$0, (%eax)
	leal	-832(%ebp), %eax
	movl	%eax, (%esp)
LEHB462:
	call	__ZNSsD1Ev
LEHE462:
	leal	-825(%ebp), %eax
	movl	%eax, (%esp)
	call	__ZNSaIcED1Ev
	leal	-817(%ebp), %eax
	movl	%eax, (%esp)
	call	__ZNSaIcEC1Ev
	leal	-817(%ebp), %eax
	movl	%eax, 8(%esp)
	movl	$LC101, 4(%esp)
	leal	-824(%ebp), %eax
	movl	%eax, (%esp)
LEHB463:
	call	__ZNSsC1EPKcRKSaIcE
LEHE463:
	movl	8(%ebp), %eax
	leal	32(%eax), %edx
	leal	-824(%ebp), %eax
	movl	%eax, 4(%esp)
	movl	%edx, (%esp)
LEHB464:
	call	__ZNSt3mapISsjSt4lessISsESaISt4pairIKSsjEEEixERS3_
LEHE464:
	movl	$2, (%eax)
	leal	-824(%ebp), %eax
	movl	%eax, (%esp)
LEHB465:
	call	__ZNSsD1Ev
LEHE465:
	leal	-817(%ebp), %eax
	movl	%eax, (%esp)
	call	__ZNSaIcED1Ev
	leal	-809(%ebp), %eax
	movl	%eax, (%esp)
	call	__ZNSaIcEC1Ev
	leal	-809(%ebp), %eax
	movl	%eax, 8(%esp)
	movl	$LC102, 4(%esp)
	leal	-816(%ebp), %eax
	movl	%eax, (%esp)
LEHB466:
	call	__ZNSsC1EPKcRKSaIcE
LEHE466:
	movl	8(%ebp), %eax
	leal	32(%eax), %edx
	leal	-816(%ebp), %eax
	movl	%eax, 4(%esp)
	movl	%edx, (%esp)
LEHB467:
	call	__ZNSt3mapISsjSt4lessISsESaISt4pairIKSsjEEEixERS3_
LEHE467:
	movl	$3, (%eax)
	leal	-816(%ebp), %eax
	movl	%eax, (%esp)
LEHB468:
	call	__ZNSsD1Ev
LEHE468:
	leal	-809(%ebp), %eax
	movl	%eax, (%esp)
	call	__ZNSaIcED1Ev
	leal	-801(%ebp), %eax
	movl	%eax, (%esp)
	call	__ZNSaIcEC1Ev
	leal	-801(%ebp), %eax
	movl	%eax, 8(%esp)
	movl	$LC103, 4(%esp)
	leal	-808(%ebp), %eax
	movl	%eax, (%esp)
LEHB469:
	call	__ZNSsC1EPKcRKSaIcE
LEHE469:
	movl	8(%ebp), %eax
	leal	32(%eax), %edx
	leal	-808(%ebp), %eax
	movl	%eax, 4(%esp)
	movl	%edx, (%esp)
LEHB470:
	call	__ZNSt3mapISsjSt4lessISsESaISt4pairIKSsjEEEixERS3_
LEHE470:
	movl	$2, (%eax)
	leal	-808(%ebp), %eax
	movl	%eax, (%esp)
LEHB471:
	call	__ZNSsD1Ev
LEHE471:
	leal	-801(%ebp), %eax
	movl	%eax, (%esp)
	call	__ZNSaIcED1Ev
	leal	-793(%ebp), %eax
	movl	%eax, (%esp)
	call	__ZNSaIcEC1Ev
	leal	-793(%ebp), %eax
	movl	%eax, 8(%esp)
	movl	$LC104, 4(%esp)
	leal	-800(%ebp), %eax
	movl	%eax, (%esp)
LEHB472:
	call	__ZNSsC1EPKcRKSaIcE
LEHE472:
	movl	8(%ebp), %eax
	leal	32(%eax), %edx
	leal	-800(%ebp), %eax
	movl	%eax, 4(%esp)
	movl	%edx, (%esp)
LEHB473:
	call	__ZNSt3mapISsjSt4lessISsESaISt4pairIKSsjEEEixERS3_
LEHE473:
	movl	$3, (%eax)
	leal	-800(%ebp), %eax
	movl	%eax, (%esp)
LEHB474:
	call	__ZNSsD1Ev
LEHE474:
	leal	-793(%ebp), %eax
	movl	%eax, (%esp)
	call	__ZNSaIcED1Ev
	leal	-785(%ebp), %eax
	movl	%eax, (%esp)
	call	__ZNSaIcEC1Ev
	leal	-785(%ebp), %eax
	movl	%eax, 8(%esp)
	movl	$LC105, 4(%esp)
	leal	-792(%ebp), %eax
	movl	%eax, (%esp)
LEHB475:
	call	__ZNSsC1EPKcRKSaIcE
LEHE475:
	movl	8(%ebp), %eax
	leal	32(%eax), %edx
	leal	-792(%ebp), %eax
	movl	%eax, 4(%esp)
	movl	%edx, (%esp)
LEHB476:
	call	__ZNSt3mapISsjSt4lessISsESaISt4pairIKSsjEEEixERS3_
LEHE476:
	movl	$0, (%eax)
	leal	-792(%ebp), %eax
	movl	%eax, (%esp)
LEHB477:
	call	__ZNSsD1Ev
LEHE477:
	leal	-785(%ebp), %eax
	movl	%eax, (%esp)
	call	__ZNSaIcED1Ev
	leal	-777(%ebp), %eax
	movl	%eax, (%esp)
	call	__ZNSaIcEC1Ev
	leal	-777(%ebp), %eax
	movl	%eax, 8(%esp)
	movl	$LC106, 4(%esp)
	leal	-784(%ebp), %eax
	movl	%eax, (%esp)
LEHB478:
	call	__ZNSsC1EPKcRKSaIcE
LEHE478:
	movl	8(%ebp), %eax
	leal	32(%eax), %edx
	leal	-784(%ebp), %eax
	movl	%eax, 4(%esp)
	movl	%edx, (%esp)
LEHB479:
	call	__ZNSt3mapISsjSt4lessISsESaISt4pairIKSsjEEEixERS3_
LEHE479:
	movl	$1, (%eax)
	leal	-784(%ebp), %eax
	movl	%eax, (%esp)
LEHB480:
	call	__ZNSsD1Ev
LEHE480:
	leal	-777(%ebp), %eax
	movl	%eax, (%esp)
	call	__ZNSaIcED1Ev
	leal	-769(%ebp), %eax
	movl	%eax, (%esp)
	call	__ZNSaIcEC1Ev
	leal	-769(%ebp), %eax
	movl	%eax, 8(%esp)
	movl	$LC107, 4(%esp)
	leal	-776(%ebp), %eax
	movl	%eax, (%esp)
LEHB481:
	call	__ZNSsC1EPKcRKSaIcE
LEHE481:
	movl	8(%ebp), %eax
	leal	32(%eax), %edx
	leal	-776(%ebp), %eax
	movl	%eax, 4(%esp)
	movl	%edx, (%esp)
LEHB482:
	call	__ZNSt3mapISsjSt4lessISsESaISt4pairIKSsjEEEixERS3_
LEHE482:
	movl	$0, (%eax)
	leal	-776(%ebp), %eax
	movl	%eax, (%esp)
LEHB483:
	call	__ZNSsD1Ev
LEHE483:
	leal	-769(%ebp), %eax
	movl	%eax, (%esp)
	call	__ZNSaIcED1Ev
	leal	-761(%ebp), %eax
	movl	%eax, (%esp)
	call	__ZNSaIcEC1Ev
	leal	-761(%ebp), %eax
	movl	%eax, 8(%esp)
	movl	$LC108, 4(%esp)
	leal	-768(%ebp), %eax
	movl	%eax, (%esp)
LEHB484:
	call	__ZNSsC1EPKcRKSaIcE
LEHE484:
	movl	8(%ebp), %eax
	leal	32(%eax), %edx
	leal	-768(%ebp), %eax
	movl	%eax, 4(%esp)
	movl	%edx, (%esp)
LEHB485:
	call	__ZNSt3mapISsjSt4lessISsESaISt4pairIKSsjEEEixERS3_
LEHE485:
	movl	$1, (%eax)
	leal	-768(%ebp), %eax
	movl	%eax, (%esp)
LEHB486:
	call	__ZNSsD1Ev
LEHE486:
	leal	-761(%ebp), %eax
	movl	%eax, (%esp)
	call	__ZNSaIcED1Ev
	leal	-753(%ebp), %eax
	movl	%eax, (%esp)
	call	__ZNSaIcEC1Ev
	leal	-753(%ebp), %eax
	movl	%eax, 8(%esp)
	movl	$LC109, 4(%esp)
	leal	-760(%ebp), %eax
	movl	%eax, (%esp)
LEHB487:
	call	__ZNSsC1EPKcRKSaIcE
LEHE487:
	movl	8(%ebp), %eax
	leal	32(%eax), %edx
	leal	-760(%ebp), %eax
	movl	%eax, 4(%esp)
	movl	%edx, (%esp)
LEHB488:
	call	__ZNSt3mapISsjSt4lessISsESaISt4pairIKSsjEEEixERS3_
LEHE488:
	movl	$2, (%eax)
	leal	-760(%ebp), %eax
	movl	%eax, (%esp)
LEHB489:
	call	__ZNSsD1Ev
LEHE489:
	leal	-753(%ebp), %eax
	movl	%eax, (%esp)
	call	__ZNSaIcED1Ev
	leal	-745(%ebp), %eax
	movl	%eax, (%esp)
	call	__ZNSaIcEC1Ev
	leal	-745(%ebp), %eax
	movl	%eax, 8(%esp)
	movl	$LC110, 4(%esp)
	leal	-752(%ebp), %eax
	movl	%eax, (%esp)
LEHB490:
	call	__ZNSsC1EPKcRKSaIcE
LEHE490:
	movl	8(%ebp), %eax
	leal	32(%eax), %edx
	leal	-752(%ebp), %eax
	movl	%eax, 4(%esp)
	movl	%edx, (%esp)
LEHB491:
	call	__ZNSt3mapISsjSt4lessISsESaISt4pairIKSsjEEEixERS3_
LEHE491:
	movl	$1, (%eax)
	leal	-752(%ebp), %eax
	movl	%eax, (%esp)
LEHB492:
	call	__ZNSsD1Ev
LEHE492:
	leal	-745(%ebp), %eax
	movl	%eax, (%esp)
	call	__ZNSaIcED1Ev
	leal	-737(%ebp), %eax
	movl	%eax, (%esp)
	call	__ZNSaIcEC1Ev
	leal	-737(%ebp), %eax
	movl	%eax, 8(%esp)
	movl	$LC111, 4(%esp)
	leal	-744(%ebp), %eax
	movl	%eax, (%esp)
LEHB493:
	call	__ZNSsC1EPKcRKSaIcE
LEHE493:
	movl	8(%ebp), %eax
	leal	32(%eax), %edx
	leal	-744(%ebp), %eax
	movl	%eax, 4(%esp)
	movl	%edx, (%esp)
LEHB494:
	call	__ZNSt3mapISsjSt4lessISsESaISt4pairIKSsjEEEixERS3_
LEHE494:
	movl	$0, (%eax)
	leal	-744(%ebp), %eax
	movl	%eax, (%esp)
LEHB495:
	call	__ZNSsD1Ev
LEHE495:
	leal	-737(%ebp), %eax
	movl	%eax, (%esp)
	call	__ZNSaIcED1Ev
	leal	-729(%ebp), %eax
	movl	%eax, (%esp)
	call	__ZNSaIcEC1Ev
	leal	-729(%ebp), %eax
	movl	%eax, 8(%esp)
	movl	$LC112, 4(%esp)
	leal	-736(%ebp), %eax
	movl	%eax, (%esp)
LEHB496:
	call	__ZNSsC1EPKcRKSaIcE
LEHE496:
	movl	8(%ebp), %eax
	leal	8(%eax), %edx
	leal	-736(%ebp), %eax
	movl	%eax, 4(%esp)
	movl	%edx, (%esp)
LEHB497:
	call	__ZNSt3setISsSt4lessISsESaISsEE6insertERKSs
LEHE497:
	leal	-736(%ebp), %eax
	movl	%eax, (%esp)
LEHB498:
	call	__ZNSsD1Ev
LEHE498:
	leal	-729(%ebp), %eax
	movl	%eax, (%esp)
	call	__ZNSaIcED1Ev
	movl	16(%ebp), %eax
	movl	%eax, (%esp)
LEHB499:
	call	__ZNKSt3mapISsfSt4lessISsESaISt4pairIKSsfEEE5beginEv
	movl	%eax, -1140(%ebp)
	jmp	L593
L594:
	leal	-1140(%ebp), %eax
	movl	%eax, (%esp)
	call	__ZNKSt23_Rb_tree_const_iteratorISt4pairIKSsfEEptEv
	movl	8(%ebp), %edx
	addl	$8, %edx
	movl	%eax, 4(%esp)
	movl	%edx, (%esp)
	call	__ZNSt3setISsSt4lessISsESaISsEE6insertERKSs
	leal	-1140(%ebp), %eax
	movl	%eax, (%esp)
	call	__ZNSt23_Rb_tree_const_iteratorISt4pairIKSsfEEppEv
L593:
	movl	16(%ebp), %eax
	movl	%eax, (%esp)
	call	__ZNKSt3mapISsfSt4lessISsESaISt4pairIKSsfEEE3endEv
	movl	%eax, -728(%ebp)
	leal	-728(%ebp), %eax
	movl	%eax, 4(%esp)
	leal	-1140(%ebp), %eax
	movl	%eax, (%esp)
	call	__ZNKSt23_Rb_tree_const_iteratorISt4pairIKSsfEEneERKS3_
	testb	%al, %al
	jne	L594
	movl	20(%ebp), %eax
	movl	%eax, (%esp)
	call	__ZNKSt3mapISsSsSt4lessISsESaISt4pairIKSsSsEEE5beginEv
	movl	%eax, -1144(%ebp)
	jmp	L595
L596:
	leal	-1144(%ebp), %eax
	movl	%eax, (%esp)
	call	__ZNKSt23_Rb_tree_const_iteratorISt4pairIKSsSsEEptEv
	movl	8(%ebp), %edx
	addl	$8, %edx
	movl	%eax, 4(%esp)
	movl	%edx, (%esp)
	call	__ZNSt3setISsSt4lessISsESaISsEE6insertERKSs
	leal	-1144(%ebp), %eax
	movl	%eax, (%esp)
	call	__ZNSt23_Rb_tree_const_iteratorISt4pairIKSsSsEEppEv
L595:
	movl	20(%ebp), %eax
	movl	%eax, (%esp)
	call	__ZNKSt3mapISsSsSt4lessISsESaISt4pairIKSsSsEEE3endEv
	movl	%eax, -724(%ebp)
	leal	-724(%ebp), %eax
	movl	%eax, 4(%esp)
	leal	-1144(%ebp), %eax
	movl	%eax, (%esp)
	call	__ZNKSt23_Rb_tree_const_iteratorISt4pairIKSsSsEEneERKS3_
	testb	%al, %al
	jne	L596
	movl	$-1, -1148(%ebp)
	leal	-1156(%ebp), %eax
	movl	%eax, (%esp)
	call	__ZNSt4listIlSaIlEEC1Ev
LEHE499:
	movl	12(%ebp), %eax
	movl	%eax, (%esp)
LEHB500:
	call	__ZNKSt3mapIjSsSt4lessIjESaISt4pairIKjSsEEE5beginEv
	movl	%eax, -1160(%ebp)
	jmp	L597
L642:
	leal	-1160(%ebp), %eax
	movl	%eax, (%esp)
	call	__ZNKSt23_Rb_tree_const_iteratorISt4pairIKjSsEEptEv
	movl	(%eax), %eax
	movl	%eax, -36(%ebp)
	leal	-1160(%ebp), %eax
	movl	%eax, (%esp)
	call	__ZNKSt23_Rb_tree_const_iteratorISt4pairIKjSsEEptEv
	addl	$4, %eax
	movl	%eax, 4(%esp)
	leal	-1164(%ebp), %eax
	movl	%eax, (%esp)
	call	__ZNSsC1ERKSs
LEHE500:
	movb	$0, -25(%ebp)
	leal	-716(%ebp), %eax
	movl	$4, 12(%esp)
	movl	$0, 8(%esp)
	leal	-1164(%ebp), %edx
	movl	%edx, 4(%esp)
	movl	%eax, (%esp)
LEHB501:
	call	__ZNKSs6substrEjj
LEHE501:
	subl	$4, %esp
	movl	$LC113, 4(%esp)
	leal	-716(%ebp), %eax
	movl	%eax, (%esp)
LEHB502:
	call	__ZSteqIcSt11char_traitsIcESaIcEEbRKSbIT_T0_T1_EPKS3_
LEHE502:
	movb	%al, %bl
	leal	-716(%ebp), %eax
	movl	%eax, (%esp)
LEHB503:
	call	__ZNSsD1Ev
	testb	%bl, %bl
	je	L598
	leal	-1168(%ebp), %eax
	movl	$-1, 12(%esp)
	movl	$4, 8(%esp)
	leal	-1164(%ebp), %edx
	movl	%edx, 4(%esp)
	movl	%eax, (%esp)
	call	__ZNKSs6substrEjj
LEHE503:
	subl	$4, %esp
	leal	-712(%ebp), %eax
	leal	-1168(%ebp), %edx
	movl	%edx, 4(%esp)
	movl	%eax, (%esp)
LEHB504:
	call	__Z10StringTrimRKSs
LEHE504:
	subl	$4, %esp
	leal	-712(%ebp), %eax
	movl	%eax, 4(%esp)
	leal	-1168(%ebp), %eax
	movl	%eax, (%esp)
LEHB505:
	call	__ZNSsaSERKSs
LEHE505:
	leal	-712(%ebp), %eax
	movl	%eax, (%esp)
LEHB506:
	call	__ZNSsD1Ev
	leal	-1168(%ebp), %eax
	movl	%eax, (%esp)
	call	__Z8IsStringRKSs
	xorl	$1, %eax
	testb	%al, %al
	jne	L599
	movl	$LC114, 4(%esp)
	leal	-1168(%ebp), %eax
	movl	%eax, (%esp)
	call	__ZSteqIcSt11char_traitsIcESaIcEEbRKSbIT_T0_T1_EPKS3_
	testb	%al, %al
	je	L600
L599:
	movb	$1, %al
	jmp	L601
L600:
	movb	$0, %al
L601:
	testb	%al, %al
	je	L602
	leal	-700(%ebp), %eax
	movl	-36(%ebp), %edx
	movl	%edx, 4(%esp)
	movl	%eax, (%esp)
	call	__Z15ConvertToStringIjESsT_
LEHE506:
	subl	$4, %esp
	leal	-704(%ebp), %eax
	leal	-700(%ebp), %edx
	movl	%edx, 8(%esp)
	movl	$LC115, 4(%esp)
	movl	%eax, (%esp)
LEHB507:
	call	__ZStplIcSt11char_traitsIcESaIcEESbIT_T0_T1_EPKS3_RKS6_
LEHE507:
	subl	$4, %esp
	leal	-708(%ebp), %eax
	movl	$LC36, 8(%esp)
	leal	-704(%ebp), %edx
	movl	%edx, 4(%esp)
	movl	%eax, (%esp)
LEHB508:
	call	__ZStplIcSt11char_traitsIcESaIcEESbIT_T0_T1_ERKS6_PKS3_
LEHE508:
	subl	$4, %esp
	leal	-708(%ebp), %eax
	movl	%eax, (%esp)
LEHB509:
	call	__Z12ProcessErrorRKSs
LEHE509:
	leal	-708(%ebp), %eax
	movl	%eax, (%esp)
LEHB510:
	call	__ZNSsD1Ev
LEHE510:
	leal	-704(%ebp), %eax
	movl	%eax, (%esp)
LEHB511:
	call	__ZNSsD1Ev
LEHE511:
	leal	-700(%ebp), %eax
	movl	%eax, (%esp)
LEHB512:
	call	__ZNSsD1Ev
L602:
	leal	-1176(%ebp), %eax
	movl	%eax, (%esp)
	call	__ZNSt4pairISsSsEC1Ev
LEHE512:
	leal	-1168(%ebp), %eax
	movl	%eax, (%esp)
LEHB513:
	call	__ZNKSs4sizeEv
	leal	-2(%eax), %edx
	leal	-696(%ebp), %eax
	movl	%edx, 12(%esp)
	movl	$1, 8(%esp)
	leal	-1168(%ebp), %edx
	movl	%edx, 4(%esp)
	movl	%eax, (%esp)
	call	__ZNKSs6substrEjj
LEHE513:
	subl	$4, %esp
	leal	-696(%ebp), %eax
	movl	%eax, 4(%esp)
	leal	-1168(%ebp), %eax
	movl	%eax, (%esp)
LEHB514:
	call	__ZNSsaSERKSs
LEHE514:
	leal	-696(%ebp), %eax
	movl	%eax, (%esp)
LEHB515:
	call	__ZNSsD1Ev
	movl	$-1, 8(%esp)
	movl	$92, 4(%esp)
	leal	-1168(%ebp), %eax
	movl	%eax, (%esp)
	call	__ZNKSs12find_last_ofEcj
	movl	%eax, -32(%ebp)
	cmpl	$-1, -32(%ebp)
	je	L603
	incl	-32(%ebp)
	leal	-692(%ebp), %eax
	movl	-32(%ebp), %edx
	movl	%edx, 12(%esp)
	movl	$0, 8(%esp)
	leal	-1168(%ebp), %edx
	movl	%edx, 4(%esp)
	movl	%eax, (%esp)
	call	__ZNKSs6substrEjj
LEHE515:
	subl	$4, %esp
	leal	-692(%ebp), %eax
	movl	%eax, 4(%esp)
	leal	-1176(%ebp), %eax
	addl	$4, %eax
	movl	%eax, (%esp)
LEHB516:
	call	__ZNSsaSERKSs
LEHE516:
	leal	-692(%ebp), %eax
	movl	%eax, (%esp)
LEHB517:
	call	__ZNSsD1Ev
	jmp	L604
L603:
	movl	$0, -32(%ebp)
L604:
	leal	-688(%ebp), %eax
	movl	$-1, 12(%esp)
	movl	-32(%ebp), %edx
	movl	%edx, 8(%esp)
	leal	-1168(%ebp), %edx
	movl	%edx, 4(%esp)
	movl	%eax, (%esp)
	call	__ZNKSs6substrEjj
LEHE517:
	subl	$4, %esp
	leal	-688(%ebp), %eax
	movl	%eax, 4(%esp)
	leal	-1176(%ebp), %eax
	movl	%eax, (%esp)
LEHB518:
	call	__ZNSsaSERKSs
LEHE518:
	leal	-688(%ebp), %eax
	movl	%eax, (%esp)
LEHB519:
	call	__ZNSsD1Ev
	leal	-1176(%ebp), %eax
	movl	%eax, (%esp)
	call	__ZNKSs5emptyEv
	testb	%al, %al
	je	L605
	leal	-676(%ebp), %eax
	movl	-36(%ebp), %edx
	movl	%edx, 4(%esp)
	movl	%eax, (%esp)
	call	__Z15ConvertToStringIjESsT_
LEHE519:
	subl	$4, %esp
	leal	-680(%ebp), %eax
	leal	-676(%ebp), %edx
	movl	%edx, 8(%esp)
	movl	$LC115, 4(%esp)
	movl	%eax, (%esp)
LEHB520:
	call	__ZStplIcSt11char_traitsIcESaIcEESbIT_T0_T1_EPKS3_RKS6_
LEHE520:
	subl	$4, %esp
	leal	-684(%ebp), %eax
	movl	$LC36, 8(%esp)
	leal	-680(%ebp), %edx
	movl	%edx, 4(%esp)
	movl	%eax, (%esp)
LEHB521:
	call	__ZStplIcSt11char_traitsIcESaIcEESbIT_T0_T1_ERKS6_PKS3_
LEHE521:
	subl	$4, %esp
	leal	-684(%ebp), %eax
	movl	%eax, (%esp)
LEHB522:
	call	__Z12ProcessErrorRKSs
LEHE522:
	leal	-684(%ebp), %eax
	movl	%eax, (%esp)
LEHB523:
	call	__ZNSsD1Ev
LEHE523:
	leal	-680(%ebp), %eax
	movl	%eax, (%esp)
LEHB524:
	call	__ZNSsD1Ev
LEHE524:
	leal	-676(%ebp), %eax
	movl	%eax, (%esp)
LEHB525:
	call	__ZNSsD1Ev
L605:
	leal	-1176(%ebp), %eax
	movl	%eax, (%esp)
	call	__ZNKSs6lengthEv
LEHE525:
	movl	%eax, -40(%ebp)
	movl	-40(%ebp), %eax
	subl	$2, %eax
	movl	%eax, -44(%ebp)
	movb	$0, %bl
	movl	$0, %esi
	movl	$0, %edi
	cmpl	$5, -40(%ebp)
	jbe	L606
	leal	-672(%ebp), %eax
	movl	$3, 12(%esp)
	movl	$0, 8(%esp)
	leal	-1176(%ebp), %edx
	movl	%edx, 4(%esp)
	movl	%eax, (%esp)
LEHB526:
	call	__ZNKSs6substrEjj
	subl	$4, %esp
	movb	$1, %bl
	movl	$LC116, 4(%esp)
	leal	-672(%ebp), %eax
	movl	%eax, (%esp)
	call	__ZSteqIcSt11char_traitsIcESaIcEEbRKSbIT_T0_T1_EPKS3_
	testb	%al, %al
	je	L606
	leal	-668(%ebp), %eax
	movl	$-1, 12(%esp)
	movl	-44(%ebp), %edx
	movl	%edx, 8(%esp)
	leal	-1176(%ebp), %edx
	movl	%edx, 4(%esp)
	movl	%eax, (%esp)
	call	__ZNKSs6substrEjj
	subl	$4, %esp
	movl	$1, %esi
	movl	$LC117, 4(%esp)
	leal	-668(%ebp), %eax
	movl	%eax, (%esp)
	call	__ZSteqIcSt11char_traitsIcESaIcEEbRKSbIT_T0_T1_EPKS3_
	testb	%al, %al
	jne	L607
	leal	-664(%ebp), %eax
	movl	$-1, 12(%esp)
	movl	-44(%ebp), %edx
	movl	%edx, 8(%esp)
	leal	-1176(%ebp), %edx
	movl	%edx, 4(%esp)
	movl	%eax, (%esp)
	call	__ZNKSs6substrEjj
	subl	$4, %esp
	movl	$1, %edi
	movl	$LC118, 4(%esp)
	leal	-664(%ebp), %eax
	movl	%eax, (%esp)
	call	__ZSteqIcSt11char_traitsIcESaIcEEbRKSbIT_T0_T1_EPKS3_
LEHE526:
	testb	%al, %al
	je	L606
L607:
	movb	$1, %al
	jmp	L608
L606:
	movb	$0, %al
L608:
	movb	%al, -1289(%ebp)
	movl	%edi, %eax
	testb	%al, %al
	je	L609
	leal	-664(%ebp), %eax
	movl	%eax, (%esp)
LEHB527:
	call	__ZNSsD1Ev
LEHE527:
L609:
	movl	%esi, %eax
	testb	%al, %al
	je	L610
	leal	-668(%ebp), %eax
	movl	%eax, (%esp)
LEHB528:
	call	__ZNSsD1Ev
LEHE528:
L610:
	testb	%bl, %bl
	je	L611
	leal	-672(%ebp), %eax
	movl	%eax, (%esp)
LEHB529:
	call	__ZNSsD1Ev
L611:
	cmpb	$0, -1289(%ebp)
	je	L612
	movl	-44(%ebp), %eax
	leal	-3(%eax), %edx
	leal	-660(%ebp), %eax
	movl	%edx, 12(%esp)
	movl	$3, 8(%esp)
	leal	-1176(%ebp), %edx
	movl	%edx, 4(%esp)
	movl	%eax, (%esp)
	call	__ZNKSs6substrEjj
LEHE529:
	subl	$4, %esp
	leal	-660(%ebp), %eax
	movl	%eax, 4(%esp)
	leal	-1176(%ebp), %eax
	movl	%eax, (%esp)
LEHB530:
	call	__ZNSsaSERKSs
LEHE530:
	leal	-660(%ebp), %eax
	movl	%eax, (%esp)
LEHB531:
	call	__ZNSsD1Ev
L612:
	movl	8(%ebp), %eax
	leal	80(%eax), %edx
	leal	-1176(%ebp), %eax
	movl	%eax, 4(%esp)
	movl	%edx, (%esp)
	call	__ZNSt4listISt4pairISsSsESaIS1_EE9push_backERKS1_
LEHE531:
	leal	-1176(%ebp), %eax
	movl	%eax, (%esp)
LEHB532:
	call	__ZNSt4pairISsSsED1Ev
LEHE532:
	leal	-1168(%ebp), %eax
	movl	%eax, (%esp)
LEHB533:
	call	__ZNSsD1Ev
	jmp	L613
L598:
	leal	-656(%ebp), %eax
	movl	$10, 12(%esp)
	movl	$0, 8(%esp)
	leal	-1164(%ebp), %edx
	movl	%edx, 4(%esp)
	movl	%eax, (%esp)
	call	__ZNKSs6substrEjj
LEHE533:
	subl	$4, %esp
	movl	$LC119, 4(%esp)
	leal	-656(%ebp), %eax
	movl	%eax, (%esp)
LEHB534:
	call	__ZSteqIcSt11char_traitsIcESaIcEEbRKSbIT_T0_T1_EPKS3_
LEHE534:
	movb	%al, %bl
	leal	-656(%ebp), %eax
	movl	%eax, (%esp)
LEHB535:
	call	__ZNSsD1Ev
	testb	%bl, %bl
	je	L614
	movl	$0, 8(%esp)
	movl	$47, 4(%esp)
	leal	-1164(%ebp), %eax
	movl	%eax, (%esp)
	call	__ZNKSs4findEcj
	movl	%eax, -48(%ebp)
	cmpl	$-1, -48(%ebp)
	jne	L615
	leal	-644(%ebp), %eax
	movl	-36(%ebp), %edx
	movl	%edx, 4(%esp)
	movl	%eax, (%esp)
	call	__Z15ConvertToStringIjESsT_
LEHE535:
	subl	$4, %esp
	leal	-648(%ebp), %eax
	leal	-644(%ebp), %edx
	movl	%edx, 8(%esp)
	movl	$LC120, 4(%esp)
	movl	%eax, (%esp)
LEHB536:
	call	__ZStplIcSt11char_traitsIcESaIcEESbIT_T0_T1_EPKS3_RKS6_
LEHE536:
	subl	$4, %esp
	leal	-652(%ebp), %eax
	movl	$LC36, 8(%esp)
	leal	-648(%ebp), %edx
	movl	%edx, 4(%esp)
	movl	%eax, (%esp)
LEHB537:
	call	__ZStplIcSt11char_traitsIcESaIcEESbIT_T0_T1_ERKS6_PKS3_
LEHE537:
	subl	$4, %esp
	leal	-652(%ebp), %eax
	movl	%eax, (%esp)
LEHB538:
	call	__Z12ProcessErrorRKSs
LEHE538:
	leal	-652(%ebp), %eax
	movl	%eax, (%esp)
LEHB539:
	call	__ZNSsD1Ev
LEHE539:
	leal	-648(%ebp), %eax
	movl	%eax, (%esp)
LEHB540:
	call	__ZNSsD1Ev
LEHE540:
	leal	-644(%ebp), %eax
	movl	%eax, (%esp)
LEHB541:
	call	__ZNSsD1Ev
L615:
	movl	-48(%ebp), %eax
	leal	1(%eax), %edx
	leal	-1180(%ebp), %eax
	movl	$-1, 12(%esp)
	movl	%edx, 8(%esp)
	leal	-1164(%ebp), %edx
	movl	%edx, 4(%esp)
	movl	%eax, (%esp)
	call	__ZNKSs6substrEjj
LEHE541:
	subl	$4, %esp
	leal	-640(%ebp), %eax
	leal	-1180(%ebp), %edx
	movl	%edx, 4(%esp)
	movl	%eax, (%esp)
LEHB542:
	call	__Z10StringTrimRKSs
LEHE542:
	subl	$4, %esp
	leal	-640(%ebp), %eax
	movl	%eax, 4(%esp)
	leal	-1180(%ebp), %eax
	movl	%eax, (%esp)
LEHB543:
	call	__ZNSsaSERKSs
LEHE543:
	leal	-640(%ebp), %eax
	movl	%eax, (%esp)
LEHB544:
	call	__ZNSsD1Ev
	movl	-48(%ebp), %eax
	leal	-10(%eax), %edx
	leal	-1184(%ebp), %eax
	movl	%edx, 12(%esp)
	movl	$10, 8(%esp)
	leal	-1164(%ebp), %edx
	movl	%edx, 4(%esp)
	movl	%eax, (%esp)
	call	__ZNKSs6substrEjj
LEHE544:
	subl	$4, %esp
	leal	-636(%ebp), %eax
	leal	-1184(%ebp), %edx
	movl	%edx, 4(%esp)
	movl	%eax, (%esp)
LEHB545:
	call	__Z10StringTrimRKSs
LEHE545:
	subl	$4, %esp
	leal	-636(%ebp), %eax
	movl	%eax, 4(%esp)
	leal	-1184(%ebp), %eax
	movl	%eax, (%esp)
LEHB546:
	call	__ZNSsaSERKSs
LEHE546:
	leal	-636(%ebp), %eax
	movl	%eax, (%esp)
LEHB547:
	call	__ZNSsD1Ev
	leal	-1184(%ebp), %eax
	movl	%eax, (%esp)
	call	__Z12IsIdentifierRKSs
	xorl	$1, %eax
	testb	%al, %al
	je	L616
	leal	-624(%ebp), %eax
	movl	-36(%ebp), %edx
	movl	%edx, 4(%esp)
	movl	%eax, (%esp)
	call	__Z15ConvertToStringIjESsT_
LEHE547:
	subl	$4, %esp
	leal	-616(%ebp), %eax
	leal	-1184(%ebp), %edx
	movl	%edx, 8(%esp)
	movl	$LC121, 4(%esp)
	movl	%eax, (%esp)
LEHB548:
	call	__ZStplIcSt11char_traitsIcESaIcEESbIT_T0_T1_EPKS3_RKS6_
LEHE548:
	subl	$4, %esp
	leal	-620(%ebp), %eax
	movl	$LC71, 8(%esp)
	leal	-616(%ebp), %edx
	movl	%edx, 4(%esp)
	movl	%eax, (%esp)
LEHB549:
	call	__ZStplIcSt11char_traitsIcESaIcEESbIT_T0_T1_ERKS6_PKS3_
LEHE549:
	subl	$4, %esp
	leal	-628(%ebp), %eax
	leal	-624(%ebp), %edx
	movl	%edx, 8(%esp)
	leal	-620(%ebp), %edx
	movl	%edx, 4(%esp)
	movl	%eax, (%esp)
LEHB550:
	call	__ZStplIcSt11char_traitsIcESaIcEESbIT_T0_T1_ERKS6_S8_
LEHE550:
	subl	$4, %esp
	leal	-632(%ebp), %eax
	movl	$LC36, 8(%esp)
	leal	-628(%ebp), %edx
	movl	%edx, 4(%esp)
	movl	%eax, (%esp)
LEHB551:
	call	__ZStplIcSt11char_traitsIcESaIcEESbIT_T0_T1_ERKS6_PKS3_
LEHE551:
	subl	$4, %esp
	leal	-632(%ebp), %eax
	movl	%eax, (%esp)
LEHB552:
	call	__Z12ProcessErrorRKSs
LEHE552:
	leal	-632(%ebp), %eax
	movl	%eax, (%esp)
LEHB553:
	call	__ZNSsD1Ev
LEHE553:
	leal	-628(%ebp), %eax
	movl	%eax, (%esp)
LEHB554:
	call	__ZNSsD1Ev
LEHE554:
	leal	-620(%ebp), %eax
	movl	%eax, (%esp)
LEHB555:
	call	__ZNSsD1Ev
LEHE555:
	leal	-616(%ebp), %eax
	movl	%eax, (%esp)
LEHB556:
	call	__ZNSsD1Ev
LEHE556:
	leal	-624(%ebp), %eax
	movl	%eax, (%esp)
LEHB557:
	call	__ZNSsD1Ev
L616:
	movl	8(%ebp), %eax
	leal	32(%eax), %edx
	leal	-1184(%ebp), %eax
	movl	%eax, 4(%esp)
	movl	%edx, (%esp)
	call	__ZNSt3mapISsjSt4lessISsESaISt4pairIKSsjEEEixERS3_
	movl	%eax, %ebx
	leal	-1180(%ebp), %eax
	movl	%eax, (%esp)
	call	__Z17ConvertFromStringIjET_RKSs
LEHE557:
	movl	%eax, (%ebx)
	leal	-1184(%ebp), %eax
	movl	%eax, (%esp)
LEHB558:
	call	__ZNSsD1Ev
LEHE558:
	leal	-1180(%ebp), %eax
	movl	%eax, (%esp)
LEHB559:
	call	__ZNSsD1Ev
	jmp	L613
L614:
	leal	-612(%ebp), %eax
	movl	$9, 12(%esp)
	movl	$0, 8(%esp)
	leal	-1164(%ebp), %edx
	movl	%edx, 4(%esp)
	movl	%eax, (%esp)
	call	__ZNKSs6substrEjj
LEHE559:
	subl	$4, %esp
	movl	$LC122, 4(%esp)
	leal	-612(%ebp), %eax
	movl	%eax, (%esp)
LEHB560:
	call	__ZSteqIcSt11char_traitsIcESaIcEEbRKSbIT_T0_T1_EPKS3_
LEHE560:
	movb	%al, %bl
	leal	-612(%ebp), %eax
	movl	%eax, (%esp)
LEHB561:
	call	__ZNSsD1Ev
	testb	%bl, %bl
	je	L617
	movl	$0, 8(%esp)
	movl	$47, 4(%esp)
	leal	-1164(%ebp), %eax
	movl	%eax, (%esp)
	call	__ZNKSs4findEcj
	movl	%eax, -52(%ebp)
	cmpl	$-1, -52(%ebp)
	jne	L618
	leal	-600(%ebp), %eax
	movl	-36(%ebp), %edx
	movl	%edx, 4(%esp)
	movl	%eax, (%esp)
	call	__Z15ConvertToStringIjESsT_
LEHE561:
	subl	$4, %esp
	leal	-604(%ebp), %eax
	leal	-600(%ebp), %edx
	movl	%edx, 8(%esp)
	movl	$LC120, 4(%esp)
	movl	%eax, (%esp)
LEHB562:
	call	__ZStplIcSt11char_traitsIcESaIcEESbIT_T0_T1_EPKS3_RKS6_
LEHE562:
	subl	$4, %esp
	leal	-608(%ebp), %eax
	movl	$LC36, 8(%esp)
	leal	-604(%ebp), %edx
	movl	%edx, 4(%esp)
	movl	%eax, (%esp)
LEHB563:
	call	__ZStplIcSt11char_traitsIcESaIcEESbIT_T0_T1_ERKS6_PKS3_
LEHE563:
	subl	$4, %esp
	leal	-608(%ebp), %eax
	movl	%eax, (%esp)
LEHB564:
	call	__Z12ProcessErrorRKSs
LEHE564:
	leal	-608(%ebp), %eax
	movl	%eax, (%esp)
LEHB565:
	call	__ZNSsD1Ev
LEHE565:
	leal	-604(%ebp), %eax
	movl	%eax, (%esp)
LEHB566:
	call	__ZNSsD1Ev
LEHE566:
	leal	-600(%ebp), %eax
	movl	%eax, (%esp)
LEHB567:
	call	__ZNSsD1Ev
L618:
	movl	-52(%ebp), %eax
	leal	1(%eax), %edx
	leal	-1188(%ebp), %eax
	movl	$-1, 12(%esp)
	movl	%edx, 8(%esp)
	leal	-1164(%ebp), %edx
	movl	%edx, 4(%esp)
	movl	%eax, (%esp)
	call	__ZNKSs6substrEjj
LEHE567:
	subl	$4, %esp
	leal	-596(%ebp), %eax
	leal	-1188(%ebp), %edx
	movl	%edx, 4(%esp)
	movl	%eax, (%esp)
LEHB568:
	call	__Z10StringTrimRKSs
LEHE568:
	subl	$4, %esp
	leal	-596(%ebp), %eax
	movl	%eax, 4(%esp)
	leal	-1188(%ebp), %eax
	movl	%eax, (%esp)
LEHB569:
	call	__ZNSsaSERKSs
LEHE569:
	leal	-596(%ebp), %eax
	movl	%eax, (%esp)
LEHB570:
	call	__ZNSsD1Ev
	movl	-52(%ebp), %eax
	leal	-9(%eax), %edx
	leal	-1192(%ebp), %eax
	movl	%edx, 12(%esp)
	movl	$9, 8(%esp)
	leal	-1164(%ebp), %edx
	movl	%edx, 4(%esp)
	movl	%eax, (%esp)
	call	__ZNKSs6substrEjj
LEHE570:
	subl	$4, %esp
	leal	-592(%ebp), %eax
	leal	-1192(%ebp), %edx
	movl	%edx, 4(%esp)
	movl	%eax, (%esp)
LEHB571:
	call	__Z10StringTrimRKSs
LEHE571:
	subl	$4, %esp
	leal	-592(%ebp), %eax
	movl	%eax, 4(%esp)
	leal	-1192(%ebp), %eax
	movl	%eax, (%esp)
LEHB572:
	call	__ZNSsaSERKSs
LEHE572:
	leal	-592(%ebp), %eax
	movl	%eax, (%esp)
LEHB573:
	call	__ZNSsD1Ev
	leal	-1192(%ebp), %eax
	movl	%eax, (%esp)
	call	__Z12IsIdentifierRKSs
	xorl	$1, %eax
	testb	%al, %al
	je	L619
	leal	-580(%ebp), %eax
	movl	-36(%ebp), %edx
	movl	%edx, 4(%esp)
	movl	%eax, (%esp)
	call	__Z15ConvertToStringIjESsT_
LEHE573:
	subl	$4, %esp
	leal	-572(%ebp), %eax
	leal	-1192(%ebp), %edx
	movl	%edx, 8(%esp)
	movl	$LC121, 4(%esp)
	movl	%eax, (%esp)
LEHB574:
	call	__ZStplIcSt11char_traitsIcESaIcEESbIT_T0_T1_EPKS3_RKS6_
LEHE574:
	subl	$4, %esp
	leal	-576(%ebp), %eax
	movl	$LC71, 8(%esp)
	leal	-572(%ebp), %edx
	movl	%edx, 4(%esp)
	movl	%eax, (%esp)
LEHB575:
	call	__ZStplIcSt11char_traitsIcESaIcEESbIT_T0_T1_ERKS6_PKS3_
LEHE575:
	subl	$4, %esp
	leal	-584(%ebp), %eax
	leal	-580(%ebp), %edx
	movl	%edx, 8(%esp)
	leal	-576(%ebp), %edx
	movl	%edx, 4(%esp)
	movl	%eax, (%esp)
LEHB576:
	call	__ZStplIcSt11char_traitsIcESaIcEESbIT_T0_T1_ERKS6_S8_
LEHE576:
	subl	$4, %esp
	leal	-588(%ebp), %eax
	movl	$LC36, 8(%esp)
	leal	-584(%ebp), %edx
	movl	%edx, 4(%esp)
	movl	%eax, (%esp)
LEHB577:
	call	__ZStplIcSt11char_traitsIcESaIcEESbIT_T0_T1_ERKS6_PKS3_
LEHE577:
	subl	$4, %esp
	leal	-588(%ebp), %eax
	movl	%eax, (%esp)
LEHB578:
	call	__Z12ProcessErrorRKSs
LEHE578:
	leal	-588(%ebp), %eax
	movl	%eax, (%esp)
LEHB579:
	call	__ZNSsD1Ev
LEHE579:
	leal	-584(%ebp), %eax
	movl	%eax, (%esp)
LEHB580:
	call	__ZNSsD1Ev
LEHE580:
	leal	-576(%ebp), %eax
	movl	%eax, (%esp)
LEHB581:
	call	__ZNSsD1Ev
LEHE581:
	leal	-572(%ebp), %eax
	movl	%eax, (%esp)
LEHB582:
	call	__ZNSsD1Ev
LEHE582:
	leal	-580(%ebp), %eax
	movl	%eax, (%esp)
LEHB583:
	call	__ZNSsD1Ev
L619:
	movl	8(%ebp), %eax
	leal	56(%eax), %edx
	leal	-1192(%ebp), %eax
	movl	%eax, 4(%esp)
	movl	%edx, (%esp)
	call	__ZNSt3mapISsjSt4lessISsESaISt4pairIKSsjEEEixERS3_
	movl	%eax, %ebx
	leal	-1188(%ebp), %eax
	movl	%eax, (%esp)
	call	__Z17ConvertFromStringIjET_RKSs
LEHE583:
	movl	%eax, (%ebx)
	leal	-1192(%ebp), %eax
	movl	%eax, (%esp)
LEHB584:
	call	__ZNSsD1Ev
LEHE584:
	leal	-1188(%ebp), %eax
	movl	%eax, (%esp)
LEHB585:
	call	__ZNSsD1Ev
	jmp	L613
L617:
	leal	-568(%ebp), %eax
	movl	$7, 12(%esp)
	movl	$0, 8(%esp)
	leal	-1164(%ebp), %edx
	movl	%edx, 4(%esp)
	movl	%eax, (%esp)
	call	__ZNKSs6substrEjj
LEHE585:
	subl	$4, %esp
	movl	$LC123, 4(%esp)
	leal	-568(%ebp), %eax
	movl	%eax, (%esp)
LEHB586:
	call	__ZSteqIcSt11char_traitsIcESaIcEEbRKSbIT_T0_T1_EPKS3_
LEHE586:
	movb	%al, %bl
	leal	-568(%ebp), %eax
	movl	%eax, (%esp)
LEHB587:
	call	__ZNSsD1Ev
	testb	%bl, %bl
	je	L620
	movl	$0, 8(%esp)
	movl	$61, 4(%esp)
	leal	-1164(%ebp), %eax
	movl	%eax, (%esp)
	call	__ZNKSs4findEcj
	movl	%eax, -56(%ebp)
	cmpl	$-1, -56(%ebp)
	jne	L621
	leal	-556(%ebp), %eax
	movl	-36(%ebp), %edx
	movl	%edx, 4(%esp)
	movl	%eax, (%esp)
	call	__Z15ConvertToStringIjESsT_
LEHE587:
	subl	$4, %esp
	leal	-560(%ebp), %eax
	leal	-556(%ebp), %edx
	movl	%edx, 8(%esp)
	movl	$LC120, 4(%esp)
	movl	%eax, (%esp)
LEHB588:
	call	__ZStplIcSt11char_traitsIcESaIcEESbIT_T0_T1_EPKS3_RKS6_
LEHE588:
	subl	$4, %esp
	leal	-564(%ebp), %eax
	movl	$LC36, 8(%esp)
	leal	-560(%ebp), %edx
	movl	%edx, 4(%esp)
	movl	%eax, (%esp)
LEHB589:
	call	__ZStplIcSt11char_traitsIcESaIcEESbIT_T0_T1_ERKS6_PKS3_
LEHE589:
	subl	$4, %esp
	leal	-564(%ebp), %eax
	movl	%eax, (%esp)
LEHB590:
	call	__Z12ProcessErrorRKSs
LEHE590:
	leal	-564(%ebp), %eax
	movl	%eax, (%esp)
LEHB591:
	call	__ZNSsD1Ev
LEHE591:
	leal	-560(%ebp), %eax
	movl	%eax, (%esp)
LEHB592:
	call	__ZNSsD1Ev
LEHE592:
	leal	-556(%ebp), %eax
	movl	%eax, (%esp)
LEHB593:
	call	__ZNSsD1Ev
L621:
	movl	-56(%ebp), %eax
	leal	1(%eax), %edx
	leal	-1196(%ebp), %eax
	movl	$-1, 12(%esp)
	movl	%edx, 8(%esp)
	leal	-1164(%ebp), %edx
	movl	%edx, 4(%esp)
	movl	%eax, (%esp)
	call	__ZNKSs6substrEjj
LEHE593:
	subl	$4, %esp
	leal	-552(%ebp), %eax
	leal	-1196(%ebp), %edx
	movl	%edx, 4(%esp)
	movl	%eax, (%esp)
LEHB594:
	call	__Z10StringTrimRKSs
LEHE594:
	subl	$4, %esp
	leal	-552(%ebp), %eax
	movl	%eax, 4(%esp)
	leal	-1196(%ebp), %eax
	movl	%eax, (%esp)
LEHB595:
	call	__ZNSsaSERKSs
LEHE595:
	leal	-552(%ebp), %eax
	movl	%eax, (%esp)
LEHB596:
	call	__ZNSsD1Ev
	leal	-1196(%ebp), %eax
	movl	%eax, (%esp)
	call	__Z8IsStringRKSs
	xorl	$1, %eax
	testb	%al, %al
	je	L622
	leal	-540(%ebp), %eax
	movl	-36(%ebp), %edx
	movl	%edx, 4(%esp)
	movl	%eax, (%esp)
	call	__Z15ConvertToStringIjESsT_
LEHE596:
	subl	$4, %esp
	leal	-544(%ebp), %eax
	leal	-540(%ebp), %edx
	movl	%edx, 8(%esp)
	movl	$LC124, 4(%esp)
	movl	%eax, (%esp)
LEHB597:
	call	__ZStplIcSt11char_traitsIcESaIcEESbIT_T0_T1_EPKS3_RKS6_
LEHE597:
	subl	$4, %esp
	leal	-548(%ebp), %eax
	movl	$LC36, 8(%esp)
	leal	-544(%ebp), %edx
	movl	%edx, 4(%esp)
	movl	%eax, (%esp)
LEHB598:
	call	__ZStplIcSt11char_traitsIcESaIcEESbIT_T0_T1_ERKS6_PKS3_
LEHE598:
	subl	$4, %esp
	leal	-548(%ebp), %eax
	movl	%eax, (%esp)
LEHB599:
	call	__Z12ProcessErrorRKSs
LEHE599:
	leal	-548(%ebp), %eax
	movl	%eax, (%esp)
LEHB600:
	call	__ZNSsD1Ev
LEHE600:
	leal	-544(%ebp), %eax
	movl	%eax, (%esp)
LEHB601:
	call	__ZNSsD1Ev
LEHE601:
	leal	-540(%ebp), %eax
	movl	%eax, (%esp)
LEHB602:
	call	__ZNSsD1Ev
L622:
	leal	-1196(%ebp), %eax
	movl	%eax, 4(%esp)
	leal	-524(%ebp), %eax
	movl	%eax, (%esp)
	call	__ZNSsC1ERKSs
LEHE602:
	leal	-513(%ebp), %eax
	movl	%eax, (%esp)
	call	__ZNSaIcEC1Ev
	leal	-513(%ebp), %eax
	movl	%eax, 8(%esp)
	movl	$LC125, 4(%esp)
	leal	-520(%ebp), %eax
	movl	%eax, (%esp)
LEHB603:
	call	__ZNSsC1EPKcRKSaIcE
LEHE603:
	movl	-36(%ebp), %eax
	movl	%eax, 12(%esp)
	leal	-524(%ebp), %eax
	movl	%eax, 8(%esp)
	leal	-520(%ebp), %eax
	movl	%eax, 4(%esp)
	leal	-536(%ebp), %eax
	movl	%eax, (%esp)
LEHB604:
	call	__ZN16ByteCodeMnemonicC1ESsSsj
LEHE604:
	movl	8(%ebp), %eax
	leal	-536(%ebp), %edx
	movl	%edx, 4(%esp)
	movl	%eax, (%esp)
LEHB605:
	call	__ZNSt4listI16ByteCodeMnemonicSaIS0_EE9push_backERKS0_
LEHE605:
	leal	-536(%ebp), %eax
	movl	%eax, (%esp)
LEHB606:
	call	__ZN16ByteCodeMnemonicD1Ev
LEHE606:
	leal	-520(%ebp), %eax
	movl	%eax, (%esp)
LEHB607:
	call	__ZNSsD1Ev
LEHE607:
	leal	-513(%ebp), %eax
	movl	%eax, (%esp)
	call	__ZNSaIcED1Ev
	leal	-524(%ebp), %eax
	movl	%eax, (%esp)
LEHB608:
	call	__ZNSsD1Ev
	movl	-56(%ebp), %eax
	leal	-7(%eax), %edx
	leal	-1200(%ebp), %eax
	movl	%edx, 12(%esp)
	movl	$7, 8(%esp)
	leal	-1164(%ebp), %edx
	movl	%edx, 4(%esp)
	movl	%eax, (%esp)
	call	__ZNKSs6substrEjj
LEHE608:
	subl	$4, %esp
	leal	-512(%ebp), %eax
	leal	-1200(%ebp), %edx
	movl	%edx, 4(%esp)
	movl	%eax, (%esp)
LEHB609:
	call	__Z10StringTrimRKSs
LEHE609:
	subl	$4, %esp
	leal	-512(%ebp), %eax
	movl	%eax, 4(%esp)
	leal	-1200(%ebp), %eax
	movl	%eax, (%esp)
LEHB610:
	call	__ZNSsaSERKSs
LEHE610:
	leal	-512(%ebp), %eax
	movl	%eax, (%esp)
LEHB611:
	call	__ZNSsD1Ev
	leal	-1200(%ebp), %eax
	movl	%eax, (%esp)
	call	__Z12IsIdentifierRKSs
	xorl	$1, %eax
	testb	%al, %al
	je	L623
	leal	-500(%ebp), %eax
	movl	-36(%ebp), %edx
	movl	%edx, 4(%esp)
	movl	%eax, (%esp)
	call	__Z15ConvertToStringIjESsT_
LEHE611:
	subl	$4, %esp
	leal	-492(%ebp), %eax
	leal	-1200(%ebp), %edx
	movl	%edx, 8(%esp)
	movl	$LC121, 4(%esp)
	movl	%eax, (%esp)
LEHB612:
	call	__ZStplIcSt11char_traitsIcESaIcEESbIT_T0_T1_EPKS3_RKS6_
LEHE612:
	subl	$4, %esp
	leal	-496(%ebp), %eax
	movl	$LC71, 8(%esp)
	leal	-492(%ebp), %edx
	movl	%edx, 4(%esp)
	movl	%eax, (%esp)
LEHB613:
	call	__ZStplIcSt11char_traitsIcESaIcEESbIT_T0_T1_ERKS6_PKS3_
LEHE613:
	subl	$4, %esp
	leal	-504(%ebp), %eax
	leal	-500(%ebp), %edx
	movl	%edx, 8(%esp)
	leal	-496(%ebp), %edx
	movl	%edx, 4(%esp)
	movl	%eax, (%esp)
LEHB614:
	call	__ZStplIcSt11char_traitsIcESaIcEESbIT_T0_T1_ERKS6_S8_
LEHE614:
	subl	$4, %esp
	leal	-508(%ebp), %eax
	movl	$LC36, 8(%esp)
	leal	-504(%ebp), %edx
	movl	%edx, 4(%esp)
	movl	%eax, (%esp)
LEHB615:
	call	__ZStplIcSt11char_traitsIcESaIcEESbIT_T0_T1_ERKS6_PKS3_
LEHE615:
	subl	$4, %esp
	leal	-508(%ebp), %eax
	movl	%eax, (%esp)
LEHB616:
	call	__Z12ProcessErrorRKSs
LEHE616:
	leal	-508(%ebp), %eax
	movl	%eax, (%esp)
LEHB617:
	call	__ZNSsD1Ev
LEHE617:
	leal	-504(%ebp), %eax
	movl	%eax, (%esp)
LEHB618:
	call	__ZNSsD1Ev
LEHE618:
	leal	-496(%ebp), %eax
	movl	%eax, (%esp)
LEHB619:
	call	__ZNSsD1Ev
LEHE619:
	leal	-492(%ebp), %eax
	movl	%eax, (%esp)
LEHB620:
	call	__ZNSsD1Ev
LEHE620:
	leal	-500(%ebp), %eax
	movl	%eax, (%esp)
LEHB621:
	call	__ZNSsD1Ev
L623:
	movl	8(%ebp), %eax
	leal	8(%eax), %edx
	leal	-1200(%ebp), %eax
	movl	%eax, 4(%esp)
	movl	%edx, (%esp)
	call	__ZNSt3setISsSt4lessISsESaISsEE6insertERKSs
	leal	-1200(%ebp), %eax
	movl	%eax, 4(%esp)
	leal	-476(%ebp), %eax
	movl	%eax, (%esp)
	call	__ZNSsC1ERKSs
LEHE621:
	leal	-465(%ebp), %eax
	movl	%eax, (%esp)
	call	__ZNSaIcEC1Ev
	leal	-465(%ebp), %eax
	movl	%eax, 8(%esp)
	movl	$LC126, 4(%esp)
	leal	-472(%ebp), %eax
	movl	%eax, (%esp)
LEHB622:
	call	__ZNSsC1EPKcRKSaIcE
LEHE622:
	movl	-36(%ebp), %eax
	movl	%eax, 12(%esp)
	leal	-476(%ebp), %eax
	movl	%eax, 8(%esp)
	leal	-472(%ebp), %eax
	movl	%eax, 4(%esp)
	leal	-488(%ebp), %eax
	movl	%eax, (%esp)
LEHB623:
	call	__ZN16ByteCodeMnemonicC1ESsSsj
LEHE623:
	movl	8(%ebp), %eax
	leal	-488(%ebp), %edx
	movl	%edx, 4(%esp)
	movl	%eax, (%esp)
LEHB624:
	call	__ZNSt4listI16ByteCodeMnemonicSaIS0_EE9push_backERKS0_
LEHE624:
	leal	-488(%ebp), %eax
	movl	%eax, (%esp)
LEHB625:
	call	__ZN16ByteCodeMnemonicD1Ev
LEHE625:
	leal	-472(%ebp), %eax
	movl	%eax, (%esp)
LEHB626:
	call	__ZNSsD1Ev
LEHE626:
	leal	-465(%ebp), %eax
	movl	%eax, (%esp)
	call	__ZNSaIcED1Ev
	leal	-476(%ebp), %eax
	movl	%eax, (%esp)
LEHB627:
	call	__ZNSsD1Ev
LEHE627:
	leal	-1200(%ebp), %eax
	movl	%eax, (%esp)
LEHB628:
	call	__ZNSsD1Ev
LEHE628:
	leal	-1196(%ebp), %eax
	movl	%eax, (%esp)
LEHB629:
	call	__ZNSsD1Ev
	jmp	L613
L620:
	leal	-464(%ebp), %eax
	movl	$4, 12(%esp)
	movl	$0, 8(%esp)
	leal	-1164(%ebp), %edx
	movl	%edx, 4(%esp)
	movl	%eax, (%esp)
	call	__ZNKSs6substrEjj
LEHE629:
	subl	$4, %esp
	movl	$LC127, 4(%esp)
	leal	-464(%ebp), %eax
	movl	%eax, (%esp)
LEHB630:
	call	__ZSteqIcSt11char_traitsIcESaIcEEbRKSbIT_T0_T1_EPKS3_
LEHE630:
	movb	%al, %bl
	leal	-464(%ebp), %eax
	movl	%eax, (%esp)
LEHB631:
	call	__ZNSsD1Ev
	testb	%bl, %bl
	je	L624
	movl	$0, 8(%esp)
	movl	$61, 4(%esp)
	leal	-1164(%ebp), %eax
	movl	%eax, (%esp)
	call	__ZNKSs4findEcj
	movl	%eax, -60(%ebp)
	cmpl	$-1, -60(%ebp)
	jne	L625
	leal	-452(%ebp), %eax
	movl	-36(%ebp), %edx
	movl	%edx, 4(%esp)
	movl	%eax, (%esp)
	call	__Z15ConvertToStringIjESsT_
LEHE631:
	subl	$4, %esp
	leal	-456(%ebp), %eax
	leal	-452(%ebp), %edx
	movl	%edx, 8(%esp)
	movl	$LC120, 4(%esp)
	movl	%eax, (%esp)
LEHB632:
	call	__ZStplIcSt11char_traitsIcESaIcEESbIT_T0_T1_EPKS3_RKS6_
LEHE632:
	subl	$4, %esp
	leal	-460(%ebp), %eax
	movl	$LC36, 8(%esp)
	leal	-456(%ebp), %edx
	movl	%edx, 4(%esp)
	movl	%eax, (%esp)
LEHB633:
	call	__ZStplIcSt11char_traitsIcESaIcEESbIT_T0_T1_ERKS6_PKS3_
LEHE633:
	subl	$4, %esp
	leal	-460(%ebp), %eax
	movl	%eax, (%esp)
LEHB634:
	call	__Z12ProcessErrorRKSs
LEHE634:
	leal	-460(%ebp), %eax
	movl	%eax, (%esp)
LEHB635:
	call	__ZNSsD1Ev
LEHE635:
	leal	-456(%ebp), %eax
	movl	%eax, (%esp)
LEHB636:
	call	__ZNSsD1Ev
LEHE636:
	leal	-452(%ebp), %eax
	movl	%eax, (%esp)
LEHB637:
	call	__ZNSsD1Ev
L625:
	movl	-60(%ebp), %eax
	leal	1(%eax), %edx
	leal	-1204(%ebp), %eax
	movl	$-1, 12(%esp)
	movl	%edx, 8(%esp)
	leal	-1164(%ebp), %edx
	movl	%edx, 4(%esp)
	movl	%eax, (%esp)
	call	__ZNKSs6substrEjj
LEHE637:
	subl	$4, %esp
	leal	-448(%ebp), %eax
	leal	-1204(%ebp), %edx
	movl	%edx, 4(%esp)
	movl	%eax, (%esp)
LEHB638:
	call	__Z10StringTrimRKSs
LEHE638:
	subl	$4, %esp
	leal	-448(%ebp), %eax
	movl	%eax, 4(%esp)
	leal	-1204(%ebp), %eax
	movl	%eax, (%esp)
LEHB639:
	call	__ZNSsaSERKSs
LEHE639:
	leal	-448(%ebp), %eax
	movl	%eax, (%esp)
LEHB640:
	call	__ZNSsD1Ev
	leal	-1212(%ebp), %eax
	movl	-36(%ebp), %edx
	movl	%edx, 8(%esp)
	leal	-1204(%ebp), %edx
	movl	%edx, 4(%esp)
	movl	%eax, (%esp)
	call	__Z8TokenizeRKSsj
LEHE640:
	subl	$4, %esp
	movl	8(%ebp), %eax
	leal	56(%eax), %ebx
	movl	8(%ebp), %eax
	leal	32(%eax), %ecx
	leal	-1224(%ebp), %eax
	movl	-36(%ebp), %edx
	movl	%edx, 16(%esp)
	movl	%ebx, 12(%esp)
	movl	%ecx, 8(%esp)
	leal	-1212(%ebp), %edx
	movl	%edx, 4(%esp)
	movl	%eax, (%esp)
LEHB641:
	call	__Z17CompileExpressionRKSt4listISsSaISsEERKSt3mapISsjSt4lessISsESaISt4pairIKSsjEEERSB_j
LEHE641:
	subl	$4, %esp
	movb	-1216(%ebp), %al
	movzbl	%al, %eax
	andl	$2, %eax
	testl	%eax, %eax
	jne	L626
	leal	-436(%ebp), %eax
	movl	-36(%ebp), %edx
	movl	%edx, 4(%esp)
	movl	%eax, (%esp)
LEHB642:
	call	__Z15ConvertToStringIjESsT_
LEHE642:
	subl	$4, %esp
	leal	-440(%ebp), %eax
	leal	-436(%ebp), %edx
	movl	%edx, 8(%esp)
	movl	$LC74, 4(%esp)
	movl	%eax, (%esp)
LEHB643:
	call	__ZStplIcSt11char_traitsIcESaIcEESbIT_T0_T1_EPKS3_RKS6_
LEHE643:
	subl	$4, %esp
	leal	-444(%ebp), %eax
	movl	$LC36, 8(%esp)
	leal	-440(%ebp), %edx
	movl	%edx, 4(%esp)
	movl	%eax, (%esp)
LEHB644:
	call	__ZStplIcSt11char_traitsIcESaIcEESbIT_T0_T1_ERKS6_PKS3_
LEHE644:
	subl	$4, %esp
	leal	-444(%ebp), %eax
	movl	%eax, (%esp)
LEHB645:
	call	__Z12ProcessErrorRKSs
LEHE645:
	leal	-444(%ebp), %eax
	movl	%eax, (%esp)
LEHB646:
	call	__ZNSsD1Ev
LEHE646:
	leal	-440(%ebp), %eax
	movl	%eax, (%esp)
LEHB647:
	call	__ZNSsD1Ev
LEHE647:
	leal	-436(%ebp), %eax
	movl	%eax, (%esp)
LEHB648:
	call	__ZNSsD1Ev
L626:
	leal	-1224(%ebp), %eax
	movl	%eax, (%esp)
	call	__ZNSt4listI16ByteCodeMnemonicSaIS0_EE3endEv
	movl	%eax, %esi
	leal	-1224(%ebp), %eax
	movl	%eax, (%esp)
	call	__ZNSt4listI16ByteCodeMnemonicSaIS0_EE5beginEv
	movl	%eax, %ebx
	movl	8(%ebp), %eax
	movl	%eax, (%esp)
	call	__ZNSt4listI16ByteCodeMnemonicSaIS0_EE3endEv
	movl	8(%ebp), %edx
	movl	%esi, 12(%esp)
	movl	%ebx, 8(%esp)
	movl	%eax, 4(%esp)
	movl	%edx, (%esp)
	call	__ZNSt4listI16ByteCodeMnemonicSaIS0_EE6insertISt14_List_iteratorIS0_EEEvS5_T_S6_
LEHE648:
	movb	-1216(%ebp), %al
	movzbl	%al, %eax
	andl	$1, %eax
	testb	%al, %al
	je	L627
	leal	-409(%ebp), %eax
	movl	%eax, (%esp)
	call	__ZNSaIcEC1Ev
	leal	-409(%ebp), %eax
	movl	%eax, 8(%esp)
	movl	$LC98, 4(%esp)
	leal	-416(%ebp), %eax
	movl	%eax, (%esp)
LEHB649:
	call	__ZNSsC1EPKcRKSaIcE
LEHE649:
	leal	-420(%ebp), %eax
	leal	-416(%ebp), %edx
	movl	%edx, 4(%esp)
	movl	%eax, (%esp)
LEHB650:
	call	__Z24GetSubprogramNameByAliasRKSs
LEHE650:
	subl	$4, %esp
	leal	-401(%ebp), %eax
	movl	%eax, (%esp)
	call	__ZNSaIcEC1Ev
	leal	-401(%ebp), %eax
	movl	%eax, 8(%esp)
	movl	$LC57, 4(%esp)
	leal	-408(%ebp), %eax
	movl	%eax, (%esp)
LEHB651:
	call	__ZNSsC1EPKcRKSaIcE
LEHE651:
	movl	-36(%ebp), %eax
	movl	%eax, 12(%esp)
	leal	-420(%ebp), %eax
	movl	%eax, 8(%esp)
	leal	-408(%ebp), %eax
	movl	%eax, 4(%esp)
	leal	-432(%ebp), %eax
	movl	%eax, (%esp)
LEHB652:
	call	__ZN16ByteCodeMnemonicC1ESsSsj
LEHE652:
	movl	8(%ebp), %eax
	leal	-432(%ebp), %edx
	movl	%edx, 4(%esp)
	movl	%eax, (%esp)
LEHB653:
	call	__ZNSt4listI16ByteCodeMnemonicSaIS0_EE9push_backERKS0_
LEHE653:
	leal	-432(%ebp), %eax
	movl	%eax, (%esp)
LEHB654:
	call	__ZN16ByteCodeMnemonicD1Ev
LEHE654:
	leal	-408(%ebp), %eax
	movl	%eax, (%esp)
LEHB655:
	call	__ZNSsD1Ev
LEHE655:
	leal	-401(%ebp), %eax
	movl	%eax, (%esp)
	call	__ZNSaIcED1Ev
	leal	-420(%ebp), %eax
	movl	%eax, (%esp)
LEHB656:
	call	__ZNSsD1Ev
LEHE656:
	leal	-416(%ebp), %eax
	movl	%eax, (%esp)
LEHB657:
	call	__ZNSsD1Ev
LEHE657:
	leal	-409(%ebp), %eax
	movl	%eax, (%esp)
	call	__ZNSaIcED1Ev
L627:
	movl	-60(%ebp), %eax
	leal	-4(%eax), %edx
	leal	-1228(%ebp), %eax
	movl	%edx, 12(%esp)
	movl	$4, 8(%esp)
	leal	-1164(%ebp), %edx
	movl	%edx, 4(%esp)
	movl	%eax, (%esp)
LEHB658:
	call	__ZNKSs6substrEjj
LEHE658:
	subl	$4, %esp
	leal	-400(%ebp), %eax
	leal	-1228(%ebp), %edx
	movl	%edx, 4(%esp)
	movl	%eax, (%esp)
LEHB659:
	call	__Z10StringTrimRKSs
LEHE659:
	subl	$4, %esp
	leal	-400(%ebp), %eax
	movl	%eax, 4(%esp)
	leal	-1228(%ebp), %eax
	movl	%eax, (%esp)
LEHB660:
	call	__ZNSsaSERKSs
LEHE660:
	leal	-400(%ebp), %eax
	movl	%eax, (%esp)
LEHB661:
	call	__ZNSsD1Ev
	leal	-1228(%ebp), %eax
	movl	%eax, (%esp)
	call	__Z12IsIdentifierRKSs
	xorl	$1, %eax
	testb	%al, %al
	je	L628
	leal	-388(%ebp), %eax
	movl	-36(%ebp), %edx
	movl	%edx, 4(%esp)
	movl	%eax, (%esp)
	call	__Z15ConvertToStringIjESsT_
LEHE661:
	subl	$4, %esp
	leal	-380(%ebp), %eax
	leal	-1228(%ebp), %edx
	movl	%edx, 8(%esp)
	movl	$LC121, 4(%esp)
	movl	%eax, (%esp)
LEHB662:
	call	__ZStplIcSt11char_traitsIcESaIcEESbIT_T0_T1_EPKS3_RKS6_
LEHE662:
	subl	$4, %esp
	leal	-384(%ebp), %eax
	movl	$LC71, 8(%esp)
	leal	-380(%ebp), %edx
	movl	%edx, 4(%esp)
	movl	%eax, (%esp)
LEHB663:
	call	__ZStplIcSt11char_traitsIcESaIcEESbIT_T0_T1_ERKS6_PKS3_
LEHE663:
	subl	$4, %esp
	leal	-392(%ebp), %eax
	leal	-388(%ebp), %edx
	movl	%edx, 8(%esp)
	leal	-384(%ebp), %edx
	movl	%edx, 4(%esp)
	movl	%eax, (%esp)
LEHB664:
	call	__ZStplIcSt11char_traitsIcESaIcEESbIT_T0_T1_ERKS6_S8_
LEHE664:
	subl	$4, %esp
	leal	-396(%ebp), %eax
	movl	$LC36, 8(%esp)
	leal	-392(%ebp), %edx
	movl	%edx, 4(%esp)
	movl	%eax, (%esp)
LEHB665:
	call	__ZStplIcSt11char_traitsIcESaIcEESbIT_T0_T1_ERKS6_PKS3_
LEHE665:
	subl	$4, %esp
	leal	-396(%ebp), %eax
	movl	%eax, (%esp)
LEHB666:
	call	__Z12ProcessErrorRKSs
LEHE666:
	leal	-396(%ebp), %eax
	movl	%eax, (%esp)
LEHB667:
	call	__ZNSsD1Ev
LEHE667:
	leal	-392(%ebp), %eax
	movl	%eax, (%esp)
LEHB668:
	call	__ZNSsD1Ev
LEHE668:
	leal	-384(%ebp), %eax
	movl	%eax, (%esp)
LEHB669:
	call	__ZNSsD1Ev
LEHE669:
	leal	-380(%ebp), %eax
	movl	%eax, (%esp)
LEHB670:
	call	__ZNSsD1Ev
LEHE670:
	leal	-388(%ebp), %eax
	movl	%eax, (%esp)
LEHB671:
	call	__ZNSsD1Ev
L628:
	movl	8(%ebp), %eax
	leal	8(%eax), %edx
	leal	-1228(%ebp), %eax
	movl	%eax, 4(%esp)
	movl	%edx, (%esp)
	call	__ZNSt3setISsSt4lessISsESaISsEE6insertERKSs
	leal	-1228(%ebp), %eax
	movl	%eax, 4(%esp)
	leal	-364(%ebp), %eax
	movl	%eax, (%esp)
	call	__ZNSsC1ERKSs
LEHE671:
	leal	-353(%ebp), %eax
	movl	%eax, (%esp)
	call	__ZNSaIcEC1Ev
	leal	-353(%ebp), %eax
	movl	%eax, 8(%esp)
	movl	$LC126, 4(%esp)
	leal	-360(%ebp), %eax
	movl	%eax, (%esp)
LEHB672:
	call	__ZNSsC1EPKcRKSaIcE
LEHE672:
	movl	-36(%ebp), %eax
	movl	%eax, 12(%esp)
	leal	-364(%ebp), %eax
	movl	%eax, 8(%esp)
	leal	-360(%ebp), %eax
	movl	%eax, 4(%esp)
	leal	-376(%ebp), %eax
	movl	%eax, (%esp)
LEHB673:
	call	__ZN16ByteCodeMnemonicC1ESsSsj
LEHE673:
	movl	8(%ebp), %eax
	leal	-376(%ebp), %edx
	movl	%edx, 4(%esp)
	movl	%eax, (%esp)
LEHB674:
	call	__ZNSt4listI16ByteCodeMnemonicSaIS0_EE9push_backERKS0_
LEHE674:
	leal	-376(%ebp), %eax
	movl	%eax, (%esp)
LEHB675:
	call	__ZN16ByteCodeMnemonicD1Ev
LEHE675:
	leal	-360(%ebp), %eax
	movl	%eax, (%esp)
LEHB676:
	call	__ZNSsD1Ev
LEHE676:
	leal	-353(%ebp), %eax
	movl	%eax, (%esp)
	call	__ZNSaIcED1Ev
	leal	-364(%ebp), %eax
	movl	%eax, (%esp)
LEHB677:
	call	__ZNSsD1Ev
LEHE677:
	leal	-1228(%ebp), %eax
	movl	%eax, (%esp)
LEHB678:
	call	__ZNSsD1Ev
LEHE678:
	leal	-1224(%ebp), %eax
	movl	%eax, (%esp)
LEHB679:
	call	__ZNSt4pairISt4listI16ByteCodeMnemonicSaIS1_EEhED1Ev
LEHE679:
	leal	-1212(%ebp), %eax
	movl	%eax, (%esp)
LEHB680:
	call	__ZNSt4listISsSaISsEED1Ev
LEHE680:
	leal	-1204(%ebp), %eax
	movl	%eax, (%esp)
LEHB681:
	call	__ZNSsD1Ev
	jmp	L613
L624:
	leal	-352(%ebp), %eax
	movl	$6, 12(%esp)
	movl	$0, 8(%esp)
	leal	-1164(%ebp), %edx
	movl	%edx, 4(%esp)
	movl	%eax, (%esp)
	call	__ZNKSs6substrEjj
LEHE681:
	subl	$4, %esp
	movl	$LC128, 4(%esp)
	leal	-352(%ebp), %eax
	movl	%eax, (%esp)
LEHB682:
	call	__ZSteqIcSt11char_traitsIcESaIcEEbRKSbIT_T0_T1_EPKS3_
LEHE682:
	movb	%al, %bl
	leal	-352(%ebp), %eax
	movl	%eax, (%esp)
LEHB683:
	call	__ZNSsD1Ev
	testb	%bl, %bl
	je	L629
	leal	-1232(%ebp), %eax
	movl	$-1, 12(%esp)
	movl	$6, 8(%esp)
	leal	-1164(%ebp), %edx
	movl	%edx, 4(%esp)
	movl	%eax, (%esp)
	call	__ZNKSs6substrEjj
LEHE683:
	subl	$4, %esp
	leal	-348(%ebp), %eax
	leal	-1232(%ebp), %edx
	movl	%edx, 4(%esp)
	movl	%eax, (%esp)
LEHB684:
	call	__Z10StringTrimRKSs
LEHE684:
	subl	$4, %esp
	leal	-348(%ebp), %eax
	movl	%eax, 4(%esp)
	leal	-1232(%ebp), %eax
	movl	%eax, (%esp)
LEHB685:
	call	__ZNSsaSERKSs
LEHE685:
	leal	-348(%ebp), %eax
	movl	%eax, (%esp)
LEHB686:
	call	__ZNSsD1Ev
	leal	-1232(%ebp), %eax
	movl	%eax, (%esp)
	call	__Z12IsIdentifierRKSs
	xorl	$1, %eax
	testb	%al, %al
	je	L630
	leal	-336(%ebp), %eax
	movl	-36(%ebp), %edx
	movl	%edx, 4(%esp)
	movl	%eax, (%esp)
	call	__Z15ConvertToStringIjESsT_
LEHE686:
	subl	$4, %esp
	leal	-328(%ebp), %eax
	leal	-1232(%ebp), %edx
	movl	%edx, 8(%esp)
	movl	$LC121, 4(%esp)
	movl	%eax, (%esp)
LEHB687:
	call	__ZStplIcSt11char_traitsIcESaIcEESbIT_T0_T1_EPKS3_RKS6_
LEHE687:
	subl	$4, %esp
	leal	-332(%ebp), %eax
	movl	$LC71, 8(%esp)
	leal	-328(%ebp), %edx
	movl	%edx, 4(%esp)
	movl	%eax, (%esp)
LEHB688:
	call	__ZStplIcSt11char_traitsIcESaIcEESbIT_T0_T1_ERKS6_PKS3_
LEHE688:
	subl	$4, %esp
	leal	-340(%ebp), %eax
	leal	-336(%ebp), %edx
	movl	%edx, 8(%esp)
	leal	-332(%ebp), %edx
	movl	%edx, 4(%esp)
	movl	%eax, (%esp)
LEHB689:
	call	__ZStplIcSt11char_traitsIcESaIcEESbIT_T0_T1_ERKS6_S8_
LEHE689:
	subl	$4, %esp
	leal	-344(%ebp), %eax
	movl	$LC36, 8(%esp)
	leal	-340(%ebp), %edx
	movl	%edx, 4(%esp)
	movl	%eax, (%esp)
LEHB690:
	call	__ZStplIcSt11char_traitsIcESaIcEESbIT_T0_T1_ERKS6_PKS3_
LEHE690:
	subl	$4, %esp
	leal	-344(%ebp), %eax
	movl	%eax, (%esp)
LEHB691:
	call	__Z12ProcessErrorRKSs
LEHE691:
	leal	-344(%ebp), %eax
	movl	%eax, (%esp)
LEHB692:
	call	__ZNSsD1Ev
LEHE692:
	leal	-340(%ebp), %eax
	movl	%eax, (%esp)
LEHB693:
	call	__ZNSsD1Ev
LEHE693:
	leal	-332(%ebp), %eax
	movl	%eax, (%esp)
LEHB694:
	call	__ZNSsD1Ev
LEHE694:
	leal	-328(%ebp), %eax
	movl	%eax, (%esp)
LEHB695:
	call	__ZNSsD1Ev
LEHE695:
	leal	-336(%ebp), %eax
	movl	%eax, (%esp)
LEHB696:
	call	__ZNSsD1Ev
L630:
	leal	-1232(%ebp), %eax
	movl	%eax, 4(%esp)
	leal	-312(%ebp), %eax
	movl	%eax, (%esp)
	call	__ZNSsC1ERKSs
LEHE696:
	leal	-301(%ebp), %eax
	movl	%eax, (%esp)
	call	__ZNSaIcEC1Ev
	leal	-301(%ebp), %eax
	movl	%eax, 8(%esp)
	movl	$LC129, 4(%esp)
	leal	-308(%ebp), %eax
	movl	%eax, (%esp)
LEHB697:
	call	__ZNSsC1EPKcRKSaIcE
LEHE697:
	movl	-36(%ebp), %eax
	movl	%eax, 12(%esp)
	leal	-312(%ebp), %eax
	movl	%eax, 8(%esp)
	leal	-308(%ebp), %eax
	movl	%eax, 4(%esp)
	leal	-324(%ebp), %eax
	movl	%eax, (%esp)
LEHB698:
	call	__ZN16ByteCodeMnemonicC1ESsSsj
LEHE698:
	movl	8(%ebp), %eax
	leal	-324(%ebp), %edx
	movl	%edx, 4(%esp)
	movl	%eax, (%esp)
LEHB699:
	call	__ZNSt4listI16ByteCodeMnemonicSaIS0_EE9push_backERKS0_
LEHE699:
	leal	-324(%ebp), %eax
	movl	%eax, (%esp)
LEHB700:
	call	__ZN16ByteCodeMnemonicD1Ev
LEHE700:
	leal	-308(%ebp), %eax
	movl	%eax, (%esp)
LEHB701:
	call	__ZNSsD1Ev
LEHE701:
	leal	-301(%ebp), %eax
	movl	%eax, (%esp)
	call	__ZNSaIcED1Ev
	leal	-312(%ebp), %eax
	movl	%eax, (%esp)
LEHB702:
	call	__ZNSsD1Ev
LEHE702:
	leal	-1232(%ebp), %eax
	movl	%eax, (%esp)
LEHB703:
	call	__ZNSsD1Ev
	jmp	L613
L629:
	leal	-300(%ebp), %eax
	movl	$6, 12(%esp)
	movl	$0, 8(%esp)
	leal	-1164(%ebp), %edx
	movl	%edx, 4(%esp)
	movl	%eax, (%esp)
	call	__ZNKSs6substrEjj
LEHE703:
	subl	$4, %esp
	movl	$LC130, 4(%esp)
	leal	-300(%ebp), %eax
	movl	%eax, (%esp)
LEHB704:
	call	__ZSteqIcSt11char_traitsIcESaIcEEbRKSbIT_T0_T1_EPKS3_
LEHE704:
	movb	%al, %bl
	leal	-300(%ebp), %eax
	movl	%eax, (%esp)
LEHB705:
	call	__ZNSsD1Ev
	testb	%bl, %bl
	je	L631
	leal	-1236(%ebp), %eax
	movl	$-1, 12(%esp)
	movl	$6, 8(%esp)
	leal	-1164(%ebp), %edx
	movl	%edx, 4(%esp)
	movl	%eax, (%esp)
	call	__ZNKSs6substrEjj
LEHE705:
	subl	$4, %esp
	leal	-296(%ebp), %eax
	leal	-1236(%ebp), %edx
	movl	%edx, 4(%esp)
	movl	%eax, (%esp)
LEHB706:
	call	__Z10StringTrimRKSs
LEHE706:
	subl	$4, %esp
	leal	-296(%ebp), %eax
	movl	%eax, 4(%esp)
	leal	-1236(%ebp), %eax
	movl	%eax, (%esp)
LEHB707:
	call	__ZNSsaSERKSs
LEHE707:
	leal	-296(%ebp), %eax
	movl	%eax, (%esp)
LEHB708:
	call	__ZNSsD1Ev
	leal	-1236(%ebp), %eax
	movl	%eax, (%esp)
	call	__Z12IsIdentifierRKSs
	xorl	$1, %eax
	testb	%al, %al
	je	L632
	leal	-284(%ebp), %eax
	movl	-36(%ebp), %edx
	movl	%edx, 4(%esp)
	movl	%eax, (%esp)
	call	__Z15ConvertToStringIjESsT_
LEHE708:
	subl	$4, %esp
	leal	-276(%ebp), %eax
	leal	-1236(%ebp), %edx
	movl	%edx, 8(%esp)
	movl	$LC121, 4(%esp)
	movl	%eax, (%esp)
LEHB709:
	call	__ZStplIcSt11char_traitsIcESaIcEESbIT_T0_T1_EPKS3_RKS6_
LEHE709:
	subl	$4, %esp
	leal	-280(%ebp), %eax
	movl	$LC71, 8(%esp)
	leal	-276(%ebp), %edx
	movl	%edx, 4(%esp)
	movl	%eax, (%esp)
LEHB710:
	call	__ZStplIcSt11char_traitsIcESaIcEESbIT_T0_T1_ERKS6_PKS3_
LEHE710:
	subl	$4, %esp
	leal	-288(%ebp), %eax
	leal	-284(%ebp), %edx
	movl	%edx, 8(%esp)
	leal	-280(%ebp), %edx
	movl	%edx, 4(%esp)
	movl	%eax, (%esp)
LEHB711:
	call	__ZStplIcSt11char_traitsIcESaIcEESbIT_T0_T1_ERKS6_S8_
LEHE711:
	subl	$4, %esp
	leal	-292(%ebp), %eax
	movl	$LC36, 8(%esp)
	leal	-288(%ebp), %edx
	movl	%edx, 4(%esp)
	movl	%eax, (%esp)
LEHB712:
	call	__ZStplIcSt11char_traitsIcESaIcEESbIT_T0_T1_ERKS6_PKS3_
LEHE712:
	subl	$4, %esp
	leal	-292(%ebp), %eax
	movl	%eax, (%esp)
LEHB713:
	call	__Z12ProcessErrorRKSs
LEHE713:
	leal	-292(%ebp), %eax
	movl	%eax, (%esp)
LEHB714:
	call	__ZNSsD1Ev
LEHE714:
	leal	-288(%ebp), %eax
	movl	%eax, (%esp)
LEHB715:
	call	__ZNSsD1Ev
LEHE715:
	leal	-280(%ebp), %eax
	movl	%eax, (%esp)
LEHB716:
	call	__ZNSsD1Ev
LEHE716:
	leal	-276(%ebp), %eax
	movl	%eax, (%esp)
LEHB717:
	call	__ZNSsD1Ev
LEHE717:
	leal	-284(%ebp), %eax
	movl	%eax, (%esp)
LEHB718:
	call	__ZNSsD1Ev
L632:
	leal	-1236(%ebp), %eax
	movl	%eax, 4(%esp)
	leal	-260(%ebp), %eax
	movl	%eax, (%esp)
	call	__ZNSsC1ERKSs
LEHE718:
	leal	-249(%ebp), %eax
	movl	%eax, (%esp)
	call	__ZNSaIcEC1Ev
	leal	-249(%ebp), %eax
	movl	%eax, 8(%esp)
	movl	$LC131, 4(%esp)
	leal	-256(%ebp), %eax
	movl	%eax, (%esp)
LEHB719:
	call	__ZNSsC1EPKcRKSaIcE
LEHE719:
	movl	-36(%ebp), %eax
	movl	%eax, 12(%esp)
	leal	-260(%ebp), %eax
	movl	%eax, 8(%esp)
	leal	-256(%ebp), %eax
	movl	%eax, 4(%esp)
	leal	-272(%ebp), %eax
	movl	%eax, (%esp)
LEHB720:
	call	__ZN16ByteCodeMnemonicC1ESsSsj
LEHE720:
	movl	8(%ebp), %eax
	leal	-272(%ebp), %edx
	movl	%edx, 4(%esp)
	movl	%eax, (%esp)
LEHB721:
	call	__ZNSt4listI16ByteCodeMnemonicSaIS0_EE9push_backERKS0_
LEHE721:
	leal	-272(%ebp), %eax
	movl	%eax, (%esp)
LEHB722:
	call	__ZN16ByteCodeMnemonicD1Ev
LEHE722:
	leal	-256(%ebp), %eax
	movl	%eax, (%esp)
LEHB723:
	call	__ZNSsD1Ev
LEHE723:
	leal	-249(%ebp), %eax
	movl	%eax, (%esp)
	call	__ZNSaIcED1Ev
	leal	-260(%ebp), %eax
	movl	%eax, (%esp)
LEHB724:
	call	__ZNSsD1Ev
LEHE724:
	leal	-1236(%ebp), %eax
	movl	%eax, (%esp)
LEHB725:
	call	__ZNSsD1Ev
	jmp	L613
L631:
	leal	-248(%ebp), %eax
	movl	$3, 12(%esp)
	movl	$0, 8(%esp)
	leal	-1164(%ebp), %edx
	movl	%edx, 4(%esp)
	movl	%eax, (%esp)
	call	__ZNKSs6substrEjj
LEHE725:
	subl	$4, %esp
	movl	$LC132, 4(%esp)
	leal	-248(%ebp), %eax
	movl	%eax, (%esp)
LEHB726:
	call	__ZSteqIcSt11char_traitsIcESaIcEEbRKSbIT_T0_T1_EPKS3_
LEHE726:
	movb	%al, %bl
	leal	-248(%ebp), %eax
	movl	%eax, (%esp)
LEHB727:
	call	__ZNSsD1Ev
	testb	%bl, %bl
	je	L633
	movl	$0, 8(%esp)
	movl	$LC133, 4(%esp)
	leal	-1164(%ebp), %eax
	movl	%eax, (%esp)
	call	__ZNKSs4findEPKcj
	movl	%eax, -64(%ebp)
	cmpl	$-1, -64(%ebp)
	jne	L634
	leal	-236(%ebp), %eax
	movl	-36(%ebp), %edx
	movl	%edx, 4(%esp)
	movl	%eax, (%esp)
	call	__Z15ConvertToStringIjESsT_
LEHE727:
	subl	$4, %esp
	leal	-240(%ebp), %eax
	leal	-236(%ebp), %edx
	movl	%edx, 8(%esp)
	movl	$LC120, 4(%esp)
	movl	%eax, (%esp)
LEHB728:
	call	__ZStplIcSt11char_traitsIcESaIcEESbIT_T0_T1_EPKS3_RKS6_
LEHE728:
	subl	$4, %esp
	leal	-244(%ebp), %eax
	movl	$LC36, 8(%esp)
	leal	-240(%ebp), %edx
	movl	%edx, 4(%esp)
	movl	%eax, (%esp)
LEHB729:
	call	__ZStplIcSt11char_traitsIcESaIcEESbIT_T0_T1_ERKS6_PKS3_
LEHE729:
	subl	$4, %esp
	leal	-244(%ebp), %eax
	movl	%eax, (%esp)
LEHB730:
	call	__Z12ProcessErrorRKSs
LEHE730:
	leal	-244(%ebp), %eax
	movl	%eax, (%esp)
LEHB731:
	call	__ZNSsD1Ev
LEHE731:
	leal	-240(%ebp), %eax
	movl	%eax, (%esp)
LEHB732:
	call	__ZNSsD1Ev
LEHE732:
	leal	-236(%ebp), %eax
	movl	%eax, (%esp)
LEHB733:
	call	__ZNSsD1Ev
L634:
	movl	-64(%ebp), %eax
	leal	-3(%eax), %edx
	leal	-1240(%ebp), %eax
	movl	%edx, 12(%esp)
	movl	$3, 8(%esp)
	leal	-1164(%ebp), %edx
	movl	%edx, 4(%esp)
	movl	%eax, (%esp)
	call	__ZNKSs6substrEjj
LEHE733:
	subl	$4, %esp
	leal	-232(%ebp), %eax
	leal	-1240(%ebp), %edx
	movl	%edx, 4(%esp)
	movl	%eax, (%esp)
LEHB734:
	call	__Z10StringTrimRKSs
LEHE734:
	subl	$4, %esp
	leal	-232(%ebp), %eax
	movl	%eax, 4(%esp)
	leal	-1240(%ebp), %eax
	movl	%eax, (%esp)
LEHB735:
	call	__ZNSsaSERKSs
LEHE735:
	leal	-232(%ebp), %eax
	movl	%eax, (%esp)
LEHB736:
	call	__ZNSsD1Ev
	leal	-1248(%ebp), %eax
	movl	-36(%ebp), %edx
	movl	%edx, 8(%esp)
	leal	-1240(%ebp), %edx
	movl	%edx, 4(%esp)
	movl	%eax, (%esp)
	call	__Z8TokenizeRKSsj
LEHE736:
	subl	$4, %esp
	movl	8(%ebp), %eax
	leal	56(%eax), %ebx
	movl	8(%ebp), %eax
	leal	32(%eax), %ecx
	leal	-1260(%ebp), %eax
	movl	-36(%ebp), %edx
	movl	%edx, 16(%esp)
	movl	%ebx, 12(%esp)
	movl	%ecx, 8(%esp)
	leal	-1248(%ebp), %edx
	movl	%edx, 4(%esp)
	movl	%eax, (%esp)
LEHB737:
	call	__Z17CompileExpressionRKSt4listISsSaISsEERKSt3mapISsjSt4lessISsESaISt4pairIKSsjEEERSB_j
LEHE737:
	subl	$4, %esp
	movb	-1252(%ebp), %al
	movzbl	%al, %eax
	andl	$2, %eax
	testl	%eax, %eax
	jne	L635
	leal	-220(%ebp), %eax
	movl	-36(%ebp), %edx
	movl	%edx, 4(%esp)
	movl	%eax, (%esp)
LEHB738:
	call	__Z15ConvertToStringIjESsT_
LEHE738:
	subl	$4, %esp
	leal	-224(%ebp), %eax
	leal	-220(%ebp), %edx
	movl	%edx, 8(%esp)
	movl	$LC74, 4(%esp)
	movl	%eax, (%esp)
LEHB739:
	call	__ZStplIcSt11char_traitsIcESaIcEESbIT_T0_T1_EPKS3_RKS6_
LEHE739:
	subl	$4, %esp
	leal	-228(%ebp), %eax
	movl	$LC36, 8(%esp)
	leal	-224(%ebp), %edx
	movl	%edx, 4(%esp)
	movl	%eax, (%esp)
LEHB740:
	call	__ZStplIcSt11char_traitsIcESaIcEESbIT_T0_T1_ERKS6_PKS3_
LEHE740:
	subl	$4, %esp
	leal	-228(%ebp), %eax
	movl	%eax, (%esp)
LEHB741:
	call	__Z12ProcessErrorRKSs
LEHE741:
	leal	-228(%ebp), %eax
	movl	%eax, (%esp)
LEHB742:
	call	__ZNSsD1Ev
LEHE742:
	leal	-224(%ebp), %eax
	movl	%eax, (%esp)
LEHB743:
	call	__ZNSsD1Ev
LEHE743:
	leal	-220(%ebp), %eax
	movl	%eax, (%esp)
LEHB744:
	call	__ZNSsD1Ev
L635:
	leal	-1260(%ebp), %eax
	movl	%eax, (%esp)
	call	__ZNSt4listI16ByteCodeMnemonicSaIS0_EE3endEv
	movl	%eax, %esi
	leal	-1260(%ebp), %eax
	movl	%eax, (%esp)
	call	__ZNSt4listI16ByteCodeMnemonicSaIS0_EE5beginEv
	movl	%eax, %ebx
	movl	8(%ebp), %eax
	movl	%eax, (%esp)
	call	__ZNSt4listI16ByteCodeMnemonicSaIS0_EE3endEv
	movl	8(%ebp), %edx
	movl	%esi, 12(%esp)
	movl	%ebx, 8(%esp)
	movl	%eax, 4(%esp)
	movl	%edx, (%esp)
	call	__ZNSt4listI16ByteCodeMnemonicSaIS0_EE6insertISt14_List_iteratorIS0_EEEvS5_T_S6_
LEHE744:
	movb	-1252(%ebp), %al
	movzbl	%al, %eax
	andl	$1, %eax
	testb	%al, %al
	je	L636
	leal	-193(%ebp), %eax
	movl	%eax, (%esp)
	call	__ZNSaIcEC1Ev
	leal	-193(%ebp), %eax
	movl	%eax, 8(%esp)
	movl	$LC98, 4(%esp)
	leal	-200(%ebp), %eax
	movl	%eax, (%esp)
LEHB745:
	call	__ZNSsC1EPKcRKSaIcE
LEHE745:
	leal	-204(%ebp), %eax
	leal	-200(%ebp), %edx
	movl	%edx, 4(%esp)
	movl	%eax, (%esp)
LEHB746:
	call	__Z24GetSubprogramNameByAliasRKSs
LEHE746:
	subl	$4, %esp
	leal	-185(%ebp), %eax
	movl	%eax, (%esp)
	call	__ZNSaIcEC1Ev
	leal	-185(%ebp), %eax
	movl	%eax, 8(%esp)
	movl	$LC57, 4(%esp)
	leal	-192(%ebp), %eax
	movl	%eax, (%esp)
LEHB747:
	call	__ZNSsC1EPKcRKSaIcE
LEHE747:
	movl	-36(%ebp), %eax
	movl	%eax, 12(%esp)
	leal	-204(%ebp), %eax
	movl	%eax, 8(%esp)
	leal	-192(%ebp), %eax
	movl	%eax, 4(%esp)
	leal	-216(%ebp), %eax
	movl	%eax, (%esp)
LEHB748:
	call	__ZN16ByteCodeMnemonicC1ESsSsj
LEHE748:
	movl	8(%ebp), %eax
	leal	-216(%ebp), %edx
	movl	%edx, 4(%esp)
	movl	%eax, (%esp)
LEHB749:
	call	__ZNSt4listI16ByteCodeMnemonicSaIS0_EE9push_backERKS0_
LEHE749:
	leal	-216(%ebp), %eax
	movl	%eax, (%esp)
LEHB750:
	call	__ZN16ByteCodeMnemonicD1Ev
LEHE750:
	leal	-192(%ebp), %eax
	movl	%eax, (%esp)
LEHB751:
	call	__ZNSsD1Ev
LEHE751:
	leal	-185(%ebp), %eax
	movl	%eax, (%esp)
	call	__ZNSaIcED1Ev
	leal	-204(%ebp), %eax
	movl	%eax, (%esp)
LEHB752:
	call	__ZNSsD1Ev
LEHE752:
	leal	-200(%ebp), %eax
	movl	%eax, (%esp)
LEHB753:
	call	__ZNSsD1Ev
LEHE753:
	leal	-193(%ebp), %eax
	movl	%eax, (%esp)
	call	__ZNSaIcED1Ev
L636:
	movl	-1148(%ebp), %eax
	incl	%eax
	movl	%eax, -1148(%ebp)
	leal	-1148(%ebp), %eax
	movl	%eax, 4(%esp)
	leal	-1156(%ebp), %eax
	movl	%eax, (%esp)
LEHB754:
	call	__ZNSt4listIlSaIlEE9push_backERKl
	movl	-1148(%ebp), %edx
	leal	-168(%ebp), %eax
	movl	%edx, 4(%esp)
	movl	%eax, (%esp)
	call	__Z15ConvertToStringIlESsT_
LEHE754:
	subl	$4, %esp
	leal	-172(%ebp), %eax
	leal	-168(%ebp), %edx
	movl	%edx, 8(%esp)
	movl	$LC134, 4(%esp)
	movl	%eax, (%esp)
LEHB755:
	call	__ZStplIcSt11char_traitsIcESaIcEESbIT_T0_T1_EPKS3_RKS6_
LEHE755:
	subl	$4, %esp
	leal	-157(%ebp), %eax
	movl	%eax, (%esp)
	call	__ZNSaIcEC1Ev
	leal	-157(%ebp), %eax
	movl	%eax, 8(%esp)
	movl	$LC135, 4(%esp)
	leal	-164(%ebp), %eax
	movl	%eax, (%esp)
LEHB756:
	call	__ZNSsC1EPKcRKSaIcE
LEHE756:
	movl	-36(%ebp), %eax
	movl	%eax, 12(%esp)
	leal	-172(%ebp), %eax
	movl	%eax, 8(%esp)
	leal	-164(%ebp), %eax
	movl	%eax, 4(%esp)
	leal	-184(%ebp), %eax
	movl	%eax, (%esp)
LEHB757:
	call	__ZN16ByteCodeMnemonicC1ESsSsj
LEHE757:
	movl	8(%ebp), %eax
	leal	-184(%ebp), %edx
	movl	%edx, 4(%esp)
	movl	%eax, (%esp)
LEHB758:
	call	__ZNSt4listI16ByteCodeMnemonicSaIS0_EE9push_backERKS0_
LEHE758:
	leal	-184(%ebp), %eax
	movl	%eax, (%esp)
LEHB759:
	call	__ZN16ByteCodeMnemonicD1Ev
LEHE759:
	leal	-164(%ebp), %eax
	movl	%eax, (%esp)
LEHB760:
	call	__ZNSsD1Ev
LEHE760:
	leal	-157(%ebp), %eax
	movl	%eax, (%esp)
	call	__ZNSaIcED1Ev
	leal	-172(%ebp), %eax
	movl	%eax, (%esp)
LEHB761:
	call	__ZNSsD1Ev
LEHE761:
	leal	-168(%ebp), %eax
	movl	%eax, (%esp)
LEHB762:
	call	__ZNSsD1Ev
LEHE762:
	movb	$1, -25(%ebp)
	leal	-1260(%ebp), %eax
	movl	%eax, (%esp)
LEHB763:
	call	__ZNSt4pairISt4listI16ByteCodeMnemonicSaIS1_EEhED1Ev
LEHE763:
	leal	-1248(%ebp), %eax
	movl	%eax, (%esp)
LEHB764:
	call	__ZNSt4listISsSaISsEED1Ev
LEHE764:
	leal	-1240(%ebp), %eax
	movl	%eax, (%esp)
LEHB765:
	call	__ZNSsD1Ev
	jmp	L613
L633:
	leal	-1268(%ebp), %eax
	movl	-36(%ebp), %edx
	movl	%edx, 8(%esp)
	leal	-1164(%ebp), %edx
	movl	%edx, 4(%esp)
	movl	%eax, (%esp)
	call	__Z8TokenizeRKSsj
LEHE765:
	subl	$4, %esp
	movl	8(%ebp), %eax
	leal	56(%eax), %ebx
	movl	8(%ebp), %eax
	leal	32(%eax), %ecx
	leal	-1280(%ebp), %eax
	movl	-36(%ebp), %edx
	movl	%edx, 16(%esp)
	movl	%ebx, 12(%esp)
	movl	%ecx, 8(%esp)
	leal	-1268(%ebp), %edx
	movl	%edx, 4(%esp)
	movl	%eax, (%esp)
LEHB766:
	call	__Z17CompileExpressionRKSt4listISsSaISsEERKSt3mapISsjSt4lessISsESaISt4pairIKSsjEEERSB_j
LEHE766:
	subl	$4, %esp
	leal	-1280(%ebp), %eax
	movl	%eax, (%esp)
LEHB767:
	call	__ZNSt4listI16ByteCodeMnemonicSaIS0_EE3endEv
	movl	%eax, %esi
	leal	-1280(%ebp), %eax
	movl	%eax, (%esp)
	call	__ZNSt4listI16ByteCodeMnemonicSaIS0_EE5beginEv
	movl	%eax, %ebx
	movl	8(%ebp), %eax
	movl	%eax, (%esp)
	call	__ZNSt4listI16ByteCodeMnemonicSaIS0_EE3endEv
	movl	8(%ebp), %edx
	movl	%esi, 12(%esp)
	movl	%ebx, 8(%esp)
	movl	%eax, 4(%esp)
	movl	%edx, (%esp)
	call	__ZNSt4listI16ByteCodeMnemonicSaIS0_EE6insertISt14_List_iteratorIS0_EEEvS5_T_S6_
LEHE767:
	movb	-1272(%ebp), %al
	testb	%al, %al
	je	L637
	leal	-133(%ebp), %eax
	movl	%eax, (%esp)
	call	__ZNSaIcEC1Ev
	leal	-133(%ebp), %eax
	movl	%eax, 8(%esp)
	movl	$LC98, 4(%esp)
	leal	-140(%ebp), %eax
	movl	%eax, (%esp)
LEHB768:
	call	__ZNSsC1EPKcRKSaIcE
LEHE768:
	leal	-144(%ebp), %eax
	leal	-140(%ebp), %edx
	movl	%edx, 4(%esp)
	movl	%eax, (%esp)
LEHB769:
	call	__Z24GetSubprogramNameByAliasRKSs
LEHE769:
	subl	$4, %esp
	leal	-125(%ebp), %eax
	movl	%eax, (%esp)
	call	__ZNSaIcEC1Ev
	leal	-125(%ebp), %eax
	movl	%eax, 8(%esp)
	movl	$LC57, 4(%esp)
	leal	-132(%ebp), %eax
	movl	%eax, (%esp)
LEHB770:
	call	__ZNSsC1EPKcRKSaIcE
LEHE770:
	movl	-36(%ebp), %eax
	movl	%eax, 12(%esp)
	leal	-144(%ebp), %eax
	movl	%eax, 8(%esp)
	leal	-132(%ebp), %eax
	movl	%eax, 4(%esp)
	leal	-156(%ebp), %eax
	movl	%eax, (%esp)
LEHB771:
	call	__ZN16ByteCodeMnemonicC1ESsSsj
LEHE771:
	movl	8(%ebp), %eax
	leal	-156(%ebp), %edx
	movl	%edx, 4(%esp)
	movl	%eax, (%esp)
LEHB772:
	call	__ZNSt4listI16ByteCodeMnemonicSaIS0_EE9push_backERKS0_
LEHE772:
	leal	-156(%ebp), %eax
	movl	%eax, (%esp)
LEHB773:
	call	__ZN16ByteCodeMnemonicD1Ev
LEHE773:
	leal	-132(%ebp), %eax
	movl	%eax, (%esp)
LEHB774:
	call	__ZNSsD1Ev
LEHE774:
	leal	-125(%ebp), %eax
	movl	%eax, (%esp)
	call	__ZNSaIcED1Ev
	leal	-144(%ebp), %eax
	movl	%eax, (%esp)
LEHB775:
	call	__ZNSsD1Ev
LEHE775:
	leal	-140(%ebp), %eax
	movl	%eax, (%esp)
LEHB776:
	call	__ZNSsD1Ev
LEHE776:
	leal	-133(%ebp), %eax
	movl	%eax, (%esp)
	call	__ZNSaIcED1Ev
L637:
	movb	-1272(%ebp), %al
	movzbl	%al, %eax
	andl	$2, %eax
	testl	%eax, %eax
	je	L638
	leal	-105(%ebp), %eax
	movl	%eax, (%esp)
	call	__ZNSaIcEC1Ev
	leal	-105(%ebp), %eax
	movl	%eax, 8(%esp)
	movl	$LC62, 4(%esp)
	leal	-112(%ebp), %eax
	movl	%eax, (%esp)
LEHB777:
	call	__ZNSsC1EPKcRKSaIcE
LEHE777:
	leal	-97(%ebp), %eax
	movl	%eax, (%esp)
	call	__ZNSaIcEC1Ev
	leal	-97(%ebp), %eax
	movl	%eax, 8(%esp)
	movl	$LC136, 4(%esp)
	leal	-104(%ebp), %eax
	movl	%eax, (%esp)
LEHB778:
	call	__ZNSsC1EPKcRKSaIcE
LEHE778:
	movl	-36(%ebp), %eax
	movl	%eax, 12(%esp)
	leal	-112(%ebp), %eax
	movl	%eax, 8(%esp)
	leal	-104(%ebp), %eax
	movl	%eax, 4(%esp)
	leal	-124(%ebp), %eax
	movl	%eax, (%esp)
LEHB779:
	call	__ZN16ByteCodeMnemonicC1ESsSsj
LEHE779:
	movl	8(%ebp), %eax
	leal	-124(%ebp), %edx
	movl	%edx, 4(%esp)
	movl	%eax, (%esp)
LEHB780:
	call	__ZNSt4listI16ByteCodeMnemonicSaIS0_EE9push_backERKS0_
LEHE780:
	leal	-124(%ebp), %eax
	movl	%eax, (%esp)
LEHB781:
	call	__ZN16ByteCodeMnemonicD1Ev
LEHE781:
	leal	-104(%ebp), %eax
	movl	%eax, (%esp)
LEHB782:
	call	__ZNSsD1Ev
LEHE782:
	leal	-97(%ebp), %eax
	movl	%eax, (%esp)
	call	__ZNSaIcED1Ev
	leal	-112(%ebp), %eax
	movl	%eax, (%esp)
LEHB783:
	call	__ZNSsD1Ev
LEHE783:
	leal	-105(%ebp), %eax
	movl	%eax, (%esp)
	call	__ZNSaIcED1Ev
L638:
	leal	-1280(%ebp), %eax
	movl	%eax, (%esp)
LEHB784:
	call	__ZNSt4pairISt4listI16ByteCodeMnemonicSaIS1_EEhED1Ev
LEHE784:
	leal	-1268(%ebp), %eax
	movl	%eax, (%esp)
LEHB785:
	call	__ZNSt4listISsSaISsEED1Ev
L613:
	movb	-25(%ebp), %al
	xorl	$1, %eax
	testb	%al, %al
	je	L639
	jmp	L640
L641:
	leal	-1156(%ebp), %eax
	movl	%eax, (%esp)
	call	__ZNSt4listIlSaIlEE4backEv
	movl	(%eax), %eax
	movl	%eax, -68(%ebp)
	leal	-80(%ebp), %eax
	movl	-68(%ebp), %edx
	movl	%edx, 4(%esp)
	movl	%eax, (%esp)
	call	__Z15ConvertToStringIlESsT_
LEHE785:
	subl	$4, %esp
	leal	-84(%ebp), %eax
	leal	-80(%ebp), %edx
	movl	%edx, 8(%esp)
	movl	$LC134, 4(%esp)
	movl	%eax, (%esp)
LEHB786:
	call	__ZStplIcSt11char_traitsIcESaIcEESbIT_T0_T1_EPKS3_RKS6_
LEHE786:
	subl	$4, %esp
	leal	-69(%ebp), %eax
	movl	%eax, (%esp)
	call	__ZNSaIcEC1Ev
	leal	-69(%ebp), %eax
	movl	%eax, 8(%esp)
	movl	$LC129, 4(%esp)
	leal	-76(%ebp), %eax
	movl	%eax, (%esp)
LEHB787:
	call	__ZNSsC1EPKcRKSaIcE
LEHE787:
	movl	-36(%ebp), %eax
	movl	%eax, 12(%esp)
	leal	-84(%ebp), %eax
	movl	%eax, 8(%esp)
	leal	-76(%ebp), %eax
	movl	%eax, 4(%esp)
	leal	-96(%ebp), %eax
	movl	%eax, (%esp)
LEHB788:
	call	__ZN16ByteCodeMnemonicC1ESsSsj
LEHE788:
	movl	8(%ebp), %eax
	leal	-96(%ebp), %edx
	movl	%edx, 4(%esp)
	movl	%eax, (%esp)
LEHB789:
	call	__ZNSt4listI16ByteCodeMnemonicSaIS0_EE9push_backERKS0_
LEHE789:
	leal	-96(%ebp), %eax
	movl	%eax, (%esp)
LEHB790:
	call	__ZN16ByteCodeMnemonicD1Ev
LEHE790:
	leal	-76(%ebp), %eax
	movl	%eax, (%esp)
LEHB791:
	call	__ZNSsD1Ev
LEHE791:
	leal	-69(%ebp), %eax
	movl	%eax, (%esp)
	call	__ZNSaIcED1Ev
	leal	-84(%ebp), %eax
	movl	%eax, (%esp)
LEHB792:
	call	__ZNSsD1Ev
LEHE792:
	leal	-80(%ebp), %eax
	movl	%eax, (%esp)
LEHB793:
	call	__ZNSsD1Ev
	leal	-1156(%ebp), %eax
	movl	%eax, (%esp)
	call	__ZNSt4listIlSaIlEE8pop_backEv
LEHE793:
L640:
	leal	-1156(%ebp), %eax
	movl	%eax, (%esp)
	call	__ZNKSt4listIlSaIlEE5emptyEv
	xorl	$1, %eax
	testb	%al, %al
	jne	L641
L639:
	leal	-1164(%ebp), %eax
	movl	%eax, (%esp)
LEHB794:
	call	__ZNSsD1Ev
	leal	-1160(%ebp), %eax
	movl	%eax, (%esp)
	call	__ZNSt23_Rb_tree_const_iteratorISt4pairIKjSsEEppEv
L597:
	movl	12(%ebp), %eax
	movl	%eax, (%esp)
	call	__ZNKSt3mapIjSsSt4lessIjESaISt4pairIKjSsEEE3endEv
LEHE794:
	movl	%eax, -720(%ebp)
	leal	-720(%ebp), %eax
	movl	%eax, 4(%esp)
	leal	-1160(%ebp), %eax
	movl	%eax, (%esp)
	call	__ZNKSt23_Rb_tree_const_iteratorISt4pairIKjSsEEneERKS3_
	testb	%al, %al
	jne	L642
	leal	-1156(%ebp), %eax
	movl	%eax, (%esp)
LEHB795:
	call	__ZNSt4listIlSaIlEED1Ev
LEHE795:
	jmp	L1152
L900:
	movl	%eax, %ebx
	leal	-1136(%ebp), %eax
	movl	%eax, (%esp)
	call	__ZNSsD1Ev
	jmp	L644
L899:
	movl	%eax, %ebx
L644:
	leal	-1129(%ebp), %eax
	movl	%eax, (%esp)
	call	__ZNSaIcED1Ev
	jmp	L645
L903:
	movl	%eax, %ebx
	leal	-1128(%ebp), %eax
	movl	%eax, (%esp)
	call	__ZNSsD1Ev
	jmp	L647
L902:
	movl	%eax, %ebx
L647:
	leal	-1121(%ebp), %eax
	movl	%eax, (%esp)
	call	__ZNSaIcED1Ev
	jmp	L645
L905:
	movl	%eax, %ebx
	leal	-1120(%ebp), %eax
	movl	%eax, (%esp)
	call	__ZNSsD1Ev
	jmp	L649
L904:
	movl	%eax, %ebx
L649:
	leal	-1113(%ebp), %eax
	movl	%eax, (%esp)
	call	__ZNSaIcED1Ev
	jmp	L645
L907:
	movl	%eax, %ebx
	leal	-1112(%ebp), %eax
	movl	%eax, (%esp)
	call	__ZNSsD1Ev
	jmp	L651
L906:
	movl	%eax, %ebx
L651:
	leal	-1105(%ebp), %eax
	movl	%eax, (%esp)
	call	__ZNSaIcED1Ev
	jmp	L645
L909:
	movl	%eax, %ebx
	leal	-1104(%ebp), %eax
	movl	%eax, (%esp)
	call	__ZNSsD1Ev
	jmp	L653
L908:
	movl	%eax, %ebx
L653:
	leal	-1097(%ebp), %eax
	movl	%eax, (%esp)
	call	__ZNSaIcED1Ev
	jmp	L645
L911:
	movl	%eax, %ebx
	leal	-1096(%ebp), %eax
	movl	%eax, (%esp)
	call	__ZNSsD1Ev
	jmp	L655
L910:
	movl	%eax, %ebx
L655:
	leal	-1089(%ebp), %eax
	movl	%eax, (%esp)
	call	__ZNSaIcED1Ev
	jmp	L645
L913:
	movl	%eax, %ebx
	leal	-1088(%ebp), %eax
	movl	%eax, (%esp)
	call	__ZNSsD1Ev
	jmp	L657
L912:
	movl	%eax, %ebx
L657:
	leal	-1081(%ebp), %eax
	movl	%eax, (%esp)
	call	__ZNSaIcED1Ev
	jmp	L645
L915:
	movl	%eax, %ebx
	leal	-1080(%ebp), %eax
	movl	%eax, (%esp)
	call	__ZNSsD1Ev
	jmp	L659
L914:
	movl	%eax, %ebx
L659:
	leal	-1073(%ebp), %eax
	movl	%eax, (%esp)
	call	__ZNSaIcED1Ev
	jmp	L645
L917:
	movl	%eax, %ebx
	leal	-1072(%ebp), %eax
	movl	%eax, (%esp)
	call	__ZNSsD1Ev
	jmp	L661
L916:
	movl	%eax, %ebx
L661:
	leal	-1065(%ebp), %eax
	movl	%eax, (%esp)
	call	__ZNSaIcED1Ev
	jmp	L645
L919:
	movl	%eax, %ebx
	leal	-1064(%ebp), %eax
	movl	%eax, (%esp)
	call	__ZNSsD1Ev
	jmp	L663
L918:
	movl	%eax, %ebx
L663:
	leal	-1057(%ebp), %eax
	movl	%eax, (%esp)
	call	__ZNSaIcED1Ev
	jmp	L645
L921:
	movl	%eax, %ebx
	leal	-1056(%ebp), %eax
	movl	%eax, (%esp)
	call	__ZNSsD1Ev
	jmp	L665
L920:
	movl	%eax, %ebx
L665:
	leal	-1049(%ebp), %eax
	movl	%eax, (%esp)
	call	__ZNSaIcED1Ev
	jmp	L645
L923:
	movl	%eax, %ebx
	leal	-1048(%ebp), %eax
	movl	%eax, (%esp)
	call	__ZNSsD1Ev
	jmp	L667
L922:
	movl	%eax, %ebx
L667:
	leal	-1041(%ebp), %eax
	movl	%eax, (%esp)
	call	__ZNSaIcED1Ev
	jmp	L645
L925:
	movl	%eax, %ebx
	leal	-1040(%ebp), %eax
	movl	%eax, (%esp)
	call	__ZNSsD1Ev
	jmp	L669
L924:
	movl	%eax, %ebx
L669:
	leal	-1033(%ebp), %eax
	movl	%eax, (%esp)
	call	__ZNSaIcED1Ev
	jmp	L645
L927:
	movl	%eax, %ebx
	leal	-1032(%ebp), %eax
	movl	%eax, (%esp)
	call	__ZNSsD1Ev
	jmp	L671
L926:
	movl	%eax, %ebx
L671:
	leal	-1025(%ebp), %eax
	movl	%eax, (%esp)
	call	__ZNSaIcED1Ev
	jmp	L645
L929:
	movl	%eax, %ebx
	leal	-1024(%ebp), %eax
	movl	%eax, (%esp)
	call	__ZNSsD1Ev
	jmp	L673
L928:
	movl	%eax, %ebx
L673:
	leal	-1017(%ebp), %eax
	movl	%eax, (%esp)
	call	__ZNSaIcED1Ev
	jmp	L645
L931:
	movl	%eax, %ebx
	leal	-1016(%ebp), %eax
	movl	%eax, (%esp)
	call	__ZNSsD1Ev
	jmp	L675
L930:
	movl	%eax, %ebx
L675:
	leal	-1009(%ebp), %eax
	movl	%eax, (%esp)
	call	__ZNSaIcED1Ev
	jmp	L645
L933:
	movl	%eax, %ebx
	leal	-1008(%ebp), %eax
	movl	%eax, (%esp)
	call	__ZNSsD1Ev
	jmp	L677
L932:
	movl	%eax, %ebx
L677:
	leal	-1001(%ebp), %eax
	movl	%eax, (%esp)
	call	__ZNSaIcED1Ev
	jmp	L645
L935:
	movl	%eax, %ebx
	leal	-1000(%ebp), %eax
	movl	%eax, (%esp)
	call	__ZNSsD1Ev
	jmp	L679
L934:
	movl	%eax, %ebx
L679:
	leal	-993(%ebp), %eax
	movl	%eax, (%esp)
	call	__ZNSaIcED1Ev
	jmp	L645
L937:
	movl	%eax, %ebx
	leal	-992(%ebp), %eax
	movl	%eax, (%esp)
	call	__ZNSsD1Ev
	jmp	L681
L936:
	movl	%eax, %ebx
L681:
	leal	-985(%ebp), %eax
	movl	%eax, (%esp)
	call	__ZNSaIcED1Ev
	jmp	L645
L939:
	movl	%eax, %ebx
	leal	-984(%ebp), %eax
	movl	%eax, (%esp)
	call	__ZNSsD1Ev
	jmp	L683
L938:
	movl	%eax, %ebx
L683:
	leal	-977(%ebp), %eax
	movl	%eax, (%esp)
	call	__ZNSaIcED1Ev
	jmp	L645
L941:
	movl	%eax, %ebx
	leal	-976(%ebp), %eax
	movl	%eax, (%esp)
	call	__ZNSsD1Ev
	jmp	L685
L940:
	movl	%eax, %ebx
L685:
	leal	-969(%ebp), %eax
	movl	%eax, (%esp)
	call	__ZNSaIcED1Ev
	jmp	L645
L943:
	movl	%eax, %ebx
	leal	-968(%ebp), %eax
	movl	%eax, (%esp)
	call	__ZNSsD1Ev
	jmp	L687
L942:
	movl	%eax, %ebx
L687:
	leal	-961(%ebp), %eax
	movl	%eax, (%esp)
	call	__ZNSaIcED1Ev
	jmp	L645
L945:
	movl	%eax, %ebx
	leal	-960(%ebp), %eax
	movl	%eax, (%esp)
	call	__ZNSsD1Ev
	jmp	L689
L944:
	movl	%eax, %ebx
L689:
	leal	-953(%ebp), %eax
	movl	%eax, (%esp)
	call	__ZNSaIcED1Ev
	jmp	L645
L947:
	movl	%eax, %ebx
	leal	-952(%ebp), %eax
	movl	%eax, (%esp)
	call	__ZNSsD1Ev
	jmp	L691
L946:
	movl	%eax, %ebx
L691:
	leal	-945(%ebp), %eax
	movl	%eax, (%esp)
	call	__ZNSaIcED1Ev
	jmp	L645
L949:
	movl	%eax, %ebx
	leal	-944(%ebp), %eax
	movl	%eax, (%esp)
	call	__ZNSsD1Ev
	jmp	L693
L948:
	movl	%eax, %ebx
L693:
	leal	-937(%ebp), %eax
	movl	%eax, (%esp)
	call	__ZNSaIcED1Ev
	jmp	L645
L951:
	movl	%eax, %ebx
	leal	-936(%ebp), %eax
	movl	%eax, (%esp)
	call	__ZNSsD1Ev
	jmp	L695
L950:
	movl	%eax, %ebx
L695:
	leal	-929(%ebp), %eax
	movl	%eax, (%esp)
	call	__ZNSaIcED1Ev
	jmp	L645
L953:
	movl	%eax, %ebx
	leal	-928(%ebp), %eax
	movl	%eax, (%esp)
	call	__ZNSsD1Ev
	jmp	L697
L952:
	movl	%eax, %ebx
L697:
	leal	-921(%ebp), %eax
	movl	%eax, (%esp)
	call	__ZNSaIcED1Ev
	jmp	L645
L955:
	movl	%eax, %ebx
	leal	-920(%ebp), %eax
	movl	%eax, (%esp)
	call	__ZNSsD1Ev
	jmp	L699
L954:
	movl	%eax, %ebx
L699:
	leal	-913(%ebp), %eax
	movl	%eax, (%esp)
	call	__ZNSaIcED1Ev
	jmp	L645
L957:
	movl	%eax, %ebx
	leal	-912(%ebp), %eax
	movl	%eax, (%esp)
	call	__ZNSsD1Ev
	jmp	L701
L956:
	movl	%eax, %ebx
L701:
	leal	-905(%ebp), %eax
	movl	%eax, (%esp)
	call	__ZNSaIcED1Ev
	jmp	L645
L959:
	movl	%eax, %ebx
	leal	-904(%ebp), %eax
	movl	%eax, (%esp)
	call	__ZNSsD1Ev
	jmp	L703
L958:
	movl	%eax, %ebx
L703:
	leal	-897(%ebp), %eax
	movl	%eax, (%esp)
	call	__ZNSaIcED1Ev
	jmp	L645
L961:
	movl	%eax, %ebx
	leal	-896(%ebp), %eax
	movl	%eax, (%esp)
	call	__ZNSsD1Ev
	jmp	L705
L960:
	movl	%eax, %ebx
L705:
	leal	-889(%ebp), %eax
	movl	%eax, (%esp)
	call	__ZNSaIcED1Ev
	jmp	L645
L963:
	movl	%eax, %ebx
	leal	-888(%ebp), %eax
	movl	%eax, (%esp)
	call	__ZNSsD1Ev
	jmp	L707
L962:
	movl	%eax, %ebx
L707:
	leal	-881(%ebp), %eax
	movl	%eax, (%esp)
	call	__ZNSaIcED1Ev
	jmp	L645
L965:
	movl	%eax, %ebx
	leal	-880(%ebp), %eax
	movl	%eax, (%esp)
	call	__ZNSsD1Ev
	jmp	L709
L964:
	movl	%eax, %ebx
L709:
	leal	-873(%ebp), %eax
	movl	%eax, (%esp)
	call	__ZNSaIcED1Ev
	jmp	L645
L967:
	movl	%eax, %ebx
	leal	-872(%ebp), %eax
	movl	%eax, (%esp)
	call	__ZNSsD1Ev
	jmp	L711
L966:
	movl	%eax, %ebx
L711:
	leal	-865(%ebp), %eax
	movl	%eax, (%esp)
	call	__ZNSaIcED1Ev
	jmp	L645
L969:
	movl	%eax, %ebx
	leal	-864(%ebp), %eax
	movl	%eax, (%esp)
	call	__ZNSsD1Ev
	jmp	L713
L968:
	movl	%eax, %ebx
L713:
	leal	-857(%ebp), %eax
	movl	%eax, (%esp)
	call	__ZNSaIcED1Ev
	jmp	L645
L971:
	movl	%eax, %ebx
	leal	-856(%ebp), %eax
	movl	%eax, (%esp)
	call	__ZNSsD1Ev
	jmp	L715
L970:
	movl	%eax, %ebx
L715:
	leal	-849(%ebp), %eax
	movl	%eax, (%esp)
	call	__ZNSaIcED1Ev
	jmp	L645
L973:
	movl	%eax, %ebx
	leal	-848(%ebp), %eax
	movl	%eax, (%esp)
	call	__ZNSsD1Ev
	jmp	L717
L972:
	movl	%eax, %ebx
L717:
	leal	-841(%ebp), %eax
	movl	%eax, (%esp)
	call	__ZNSaIcED1Ev
	jmp	L645
L975:
	movl	%eax, %ebx
	leal	-840(%ebp), %eax
	movl	%eax, (%esp)
	call	__ZNSsD1Ev
	jmp	L719
L974:
	movl	%eax, %ebx
L719:
	leal	-833(%ebp), %eax
	movl	%eax, (%esp)
	call	__ZNSaIcED1Ev
	jmp	L645
L977:
	movl	%eax, %ebx
	leal	-832(%ebp), %eax
	movl	%eax, (%esp)
	call	__ZNSsD1Ev
	jmp	L721
L976:
	movl	%eax, %ebx
L721:
	leal	-825(%ebp), %eax
	movl	%eax, (%esp)
	call	__ZNSaIcED1Ev
	jmp	L645
L979:
	movl	%eax, %ebx
	leal	-824(%ebp), %eax
	movl	%eax, (%esp)
	call	__ZNSsD1Ev
	jmp	L723
L978:
	movl	%eax, %ebx
L723:
	leal	-817(%ebp), %eax
	movl	%eax, (%esp)
	call	__ZNSaIcED1Ev
	jmp	L645
L981:
	movl	%eax, %ebx
	leal	-816(%ebp), %eax
	movl	%eax, (%esp)
	call	__ZNSsD1Ev
	jmp	L725
L980:
	movl	%eax, %ebx
L725:
	leal	-809(%ebp), %eax
	movl	%eax, (%esp)
	call	__ZNSaIcED1Ev
	jmp	L645
L983:
	movl	%eax, %ebx
	leal	-808(%ebp), %eax
	movl	%eax, (%esp)
	call	__ZNSsD1Ev
	jmp	L727
L982:
	movl	%eax, %ebx
L727:
	leal	-801(%ebp), %eax
	movl	%eax, (%esp)
	call	__ZNSaIcED1Ev
	jmp	L645
L985:
	movl	%eax, %ebx
	leal	-800(%ebp), %eax
	movl	%eax, (%esp)
	call	__ZNSsD1Ev
	jmp	L729
L984:
	movl	%eax, %ebx
L729:
	leal	-793(%ebp), %eax
	movl	%eax, (%esp)
	call	__ZNSaIcED1Ev
	jmp	L645
L987:
	movl	%eax, %ebx
	leal	-792(%ebp), %eax
	movl	%eax, (%esp)
	call	__ZNSsD1Ev
	jmp	L731
L986:
	movl	%eax, %ebx
L731:
	leal	-785(%ebp), %eax
	movl	%eax, (%esp)
	call	__ZNSaIcED1Ev
	jmp	L645
L989:
	movl	%eax, %ebx
	leal	-784(%ebp), %eax
	movl	%eax, (%esp)
	call	__ZNSsD1Ev
	jmp	L733
L988:
	movl	%eax, %ebx
L733:
	leal	-777(%ebp), %eax
	movl	%eax, (%esp)
	call	__ZNSaIcED1Ev
	jmp	L645
L991:
	movl	%eax, %ebx
	leal	-776(%ebp), %eax
	movl	%eax, (%esp)
	call	__ZNSsD1Ev
	jmp	L735
L990:
